ARM GAS  C:\DOCUME~1\student\LOCALS~1\Temp\cc77S4hI.s 			page 1


   1              		.syntax unified
   2              		.cpu cortex-m3
   3              		.fpu softvfp
   4              		.eabi_attribute 20, 1
   5              		.eabi_attribute 21, 1
   6              		.eabi_attribute 23, 3
   7              		.eabi_attribute 24, 1
   8              		.eabi_attribute 25, 1
   9              		.eabi_attribute 26, 1
  10              		.eabi_attribute 30, 6
  11              		.eabi_attribute 18, 4
  12              		.thumb
  13              		.file	"PGA_1_PM.c"
  20 0000 BC000000 		.text
  20      02006C00 
  20      00000201 
  20      FB0E0D00 
  20      01010101 
  21              	.Ltext0:
  22              		.cfi_sections	.debug_frame
  23              		.bss
  24              		.align	2
  25              	PGA_1_backup:
  26 0000 000000   		.space	3
  27 0003 00       		.section	.text.PGA_1_SaveConfig,"ax",%progbits
  28              		.align	2
  29              		.global	PGA_1_SaveConfig
  30              		.thumb
  31              		.thumb_func
  32              		.type	PGA_1_SaveConfig, %function
  33              	PGA_1_SaveConfig:
  34              	.LFB0:
  35              		.file 1 ".\\Generated_Source\\PSoC5\\PGA_1_PM.c"
   1:.\Generated_Source\PSoC5/PGA_1_PM.c **** /*******************************************************************************
   2:.\Generated_Source\PSoC5/PGA_1_PM.c **** * File Name: PGA_1_PM.c  
   3:.\Generated_Source\PSoC5/PGA_1_PM.c **** * Version 1.90
   4:.\Generated_Source\PSoC5/PGA_1_PM.c **** *
   5:.\Generated_Source\PSoC5/PGA_1_PM.c **** * Description:
   6:.\Generated_Source\PSoC5/PGA_1_PM.c **** *  This file provides the power manager source code to the API for PGA 
   7:.\Generated_Source\PSoC5/PGA_1_PM.c **** *  Component.
   8:.\Generated_Source\PSoC5/PGA_1_PM.c **** *
   9:.\Generated_Source\PSoC5/PGA_1_PM.c **** * Note:
  10:.\Generated_Source\PSoC5/PGA_1_PM.c **** *
  11:.\Generated_Source\PSoC5/PGA_1_PM.c **** ********************************************************************************
  12:.\Generated_Source\PSoC5/PGA_1_PM.c **** * Copyright 2008-2012, Cypress Semiconductor Corporation.  All rights reserved.
  13:.\Generated_Source\PSoC5/PGA_1_PM.c **** * You may use this file only in accordance with the license, terms, conditions, 
  14:.\Generated_Source\PSoC5/PGA_1_PM.c **** * disclaimers, and limitations in the end user license agreement accompanying 
  15:.\Generated_Source\PSoC5/PGA_1_PM.c **** * the software package with which this file was provided.
  16:.\Generated_Source\PSoC5/PGA_1_PM.c **** *******************************************************************************/
  17:.\Generated_Source\PSoC5/PGA_1_PM.c **** 
  18:.\Generated_Source\PSoC5/PGA_1_PM.c **** #include "PGA_1.h"
ARM GAS  C:\DOCUME~1\student\LOCALS~1\Temp\cc77S4hI.s 			page 2


  19:.\Generated_Source\PSoC5/PGA_1_PM.c **** 
  20:.\Generated_Source\PSoC5/PGA_1_PM.c **** static PGA_1_BACKUP_STRUCT  PGA_1_backup;
  21:.\Generated_Source\PSoC5/PGA_1_PM.c **** 
  22:.\Generated_Source\PSoC5/PGA_1_PM.c **** 
  23:.\Generated_Source\PSoC5/PGA_1_PM.c **** /*******************************************************************************
  24:.\Generated_Source\PSoC5/PGA_1_PM.c **** * Function Name: PGA_1_SaveConfig
  25:.\Generated_Source\PSoC5/PGA_1_PM.c **** ********************************************************************************
  26:.\Generated_Source\PSoC5/PGA_1_PM.c **** *
  27:.\Generated_Source\PSoC5/PGA_1_PM.c **** * Summary:
  28:.\Generated_Source\PSoC5/PGA_1_PM.c **** *  Save the current user register configuration.
  29:.\Generated_Source\PSoC5/PGA_1_PM.c **** *
  30:.\Generated_Source\PSoC5/PGA_1_PM.c **** * Parameters:
  31:.\Generated_Source\PSoC5/PGA_1_PM.c **** *  void
  32:.\Generated_Source\PSoC5/PGA_1_PM.c **** *
  33:.\Generated_Source\PSoC5/PGA_1_PM.c **** * Return:
  34:.\Generated_Source\PSoC5/PGA_1_PM.c **** *  void
  35:.\Generated_Source\PSoC5/PGA_1_PM.c **** *
  36:.\Generated_Source\PSoC5/PGA_1_PM.c **** *******************************************************************************/
  37:.\Generated_Source\PSoC5/PGA_1_PM.c **** void PGA_1_SaveConfig(void) 
  38:.\Generated_Source\PSoC5/PGA_1_PM.c **** {
  36              		.loc 1 38 0
  37              		.cfi_startproc
  38              		@ args = 0, pretend = 0, frame = 0
  39              		@ frame_needed = 1, uses_anonymous_args = 0
  40              		@ link register save eliminated.
  41 0000 80B4     		push	{r7}
  42              	.LCFI0:
  43              		.cfi_def_cfa_offset 4
  44 0002 00AF     		add	r7, sp, #0
  45              		.cfi_offset 7, -4
  46              	.LCFI1:
  47              		.cfi_def_cfa_register 7
  39:.\Generated_Source\PSoC5/PGA_1_PM.c ****     /* Nothing to save as registers are System reset on retention flops */
  40:.\Generated_Source\PSoC5/PGA_1_PM.c **** }
  48              		.loc 1 40 0
  49 0004 BD46     		mov	sp, r7
  50 0006 80BC     		pop	{r7}
  51 0008 7047     		bx	lr
  52              		.cfi_endproc
  53              	.LFE0:
  54              		.size	PGA_1_SaveConfig, .-PGA_1_SaveConfig
  55 000a 00BF     		.section	.text.PGA_1_RestoreConfig,"ax",%progbits
  56              		.align	2
  57              		.global	PGA_1_RestoreConfig
  58              		.thumb
  59              		.thumb_func
  60              		.type	PGA_1_RestoreConfig, %function
  61              	PGA_1_RestoreConfig:
  62              	.LFB1:
  41:.\Generated_Source\PSoC5/PGA_1_PM.c **** 
  42:.\Generated_Source\PSoC5/PGA_1_PM.c **** 
  43:.\Generated_Source\PSoC5/PGA_1_PM.c **** /*******************************************************************************  
  44:.\Generated_Source\PSoC5/PGA_1_PM.c **** * Function Name: PGA_1_RestoreConfig
  45:.\Generated_Source\PSoC5/PGA_1_PM.c **** ********************************************************************************
  46:.\Generated_Source\PSoC5/PGA_1_PM.c **** *
  47:.\Generated_Source\PSoC5/PGA_1_PM.c **** * Summary:
  48:.\Generated_Source\PSoC5/PGA_1_PM.c **** *  Restore the register configurations.
ARM GAS  C:\DOCUME~1\student\LOCALS~1\Temp\cc77S4hI.s 			page 3


  49:.\Generated_Source\PSoC5/PGA_1_PM.c **** *
  50:.\Generated_Source\PSoC5/PGA_1_PM.c **** * Parameters:
  51:.\Generated_Source\PSoC5/PGA_1_PM.c **** *  void
  52:.\Generated_Source\PSoC5/PGA_1_PM.c **** *
  53:.\Generated_Source\PSoC5/PGA_1_PM.c **** * Return:
  54:.\Generated_Source\PSoC5/PGA_1_PM.c **** *  void
  55:.\Generated_Source\PSoC5/PGA_1_PM.c **** *
  56:.\Generated_Source\PSoC5/PGA_1_PM.c **** *******************************************************************************/
  57:.\Generated_Source\PSoC5/PGA_1_PM.c **** void PGA_1_RestoreConfig(void) 
  58:.\Generated_Source\PSoC5/PGA_1_PM.c **** {
  63              		.loc 1 58 0
  64              		.cfi_startproc
  65              		@ args = 0, pretend = 0, frame = 0
  66              		@ frame_needed = 1, uses_anonymous_args = 0
  67              		@ link register save eliminated.
  68 0000 80B4     		push	{r7}
  69              	.LCFI2:
  70              		.cfi_def_cfa_offset 4
  71 0002 00AF     		add	r7, sp, #0
  72              		.cfi_offset 7, -4
  73              	.LCFI3:
  74              		.cfi_def_cfa_register 7
  59:.\Generated_Source\PSoC5/PGA_1_PM.c ****     /* Nothing to restore */
  60:.\Generated_Source\PSoC5/PGA_1_PM.c **** }
  75              		.loc 1 60 0
  76 0004 BD46     		mov	sp, r7
  77 0006 80BC     		pop	{r7}
  78 0008 7047     		bx	lr
  79              		.cfi_endproc
  80              	.LFE1:
  81              		.size	PGA_1_RestoreConfig, .-PGA_1_RestoreConfig
  82 000a 00BF     		.section	.text.PGA_1_Sleep,"ax",%progbits
  83              		.align	2
  84              		.global	PGA_1_Sleep
  85              		.thumb
  86              		.thumb_func
  87              		.type	PGA_1_Sleep, %function
  88              	PGA_1_Sleep:
  89              	.LFB2:
  61:.\Generated_Source\PSoC5/PGA_1_PM.c **** 
  62:.\Generated_Source\PSoC5/PGA_1_PM.c **** 
  63:.\Generated_Source\PSoC5/PGA_1_PM.c **** /*******************************************************************************   
  64:.\Generated_Source\PSoC5/PGA_1_PM.c **** * Function Name: PGA_1_Sleep
  65:.\Generated_Source\PSoC5/PGA_1_PM.c **** ********************************************************************************
  66:.\Generated_Source\PSoC5/PGA_1_PM.c **** *
  67:.\Generated_Source\PSoC5/PGA_1_PM.c **** * Summary:
  68:.\Generated_Source\PSoC5/PGA_1_PM.c **** *  Disables block's operation and saves its configuration. Should be called 
  69:.\Generated_Source\PSoC5/PGA_1_PM.c **** *  just prior to entering sleep.
  70:.\Generated_Source\PSoC5/PGA_1_PM.c **** *
  71:.\Generated_Source\PSoC5/PGA_1_PM.c **** * Parameters:
  72:.\Generated_Source\PSoC5/PGA_1_PM.c **** *  None
  73:.\Generated_Source\PSoC5/PGA_1_PM.c **** *
  74:.\Generated_Source\PSoC5/PGA_1_PM.c **** * Return:
  75:.\Generated_Source\PSoC5/PGA_1_PM.c **** *  None
  76:.\Generated_Source\PSoC5/PGA_1_PM.c **** *
  77:.\Generated_Source\PSoC5/PGA_1_PM.c **** * Global variables:
  78:.\Generated_Source\PSoC5/PGA_1_PM.c **** *  PGA_1_backup: The structure field 'enableState' is modified 
ARM GAS  C:\DOCUME~1\student\LOCALS~1\Temp\cc77S4hI.s 			page 4


  79:.\Generated_Source\PSoC5/PGA_1_PM.c **** *  depending on the enable state of the block before entering to sleep mode.
  80:.\Generated_Source\PSoC5/PGA_1_PM.c **** *
  81:.\Generated_Source\PSoC5/PGA_1_PM.c **** *******************************************************************************/
  82:.\Generated_Source\PSoC5/PGA_1_PM.c **** void PGA_1_Sleep(void) 
  83:.\Generated_Source\PSoC5/PGA_1_PM.c **** {
  90              		.loc 1 83 0
  91              		.cfi_startproc
  92              		@ args = 0, pretend = 0, frame = 0
  93              		@ frame_needed = 1, uses_anonymous_args = 0
  94 0000 80B5     		push	{r7, lr}
  95              	.LCFI4:
  96              		.cfi_def_cfa_offset 8
  97 0002 00AF     		add	r7, sp, #0
  98              		.cfi_offset 14, -4
  99              		.cfi_offset 7, -8
 100              	.LCFI5:
 101              		.cfi_def_cfa_register 7
  84:.\Generated_Source\PSoC5/PGA_1_PM.c ****     /* Save PGA enable state */
  85:.\Generated_Source\PSoC5/PGA_1_PM.c ****     if(PGA_1_ACT_PWR_EN == (PGA_1_PM_ACT_CFG_REG & PGA_1_ACT_PWR_EN))
 102              		.loc 1 85 0
 103 0004 44F2A933 		movw	r3, #:lower16:1073759145
 104 0008 C4F20003 		movt	r3, #:upper16:1073759145
 105 000c 1B78     		ldrb	r3, [r3, #0]
 106 000e DBB2     		uxtb	r3, r3
 107 0010 03F00403 		and	r3, r3, #4
 108 0014 002B     		cmp	r3, #0
 109 0016 07D0     		beq	.L6
  86:.\Generated_Source\PSoC5/PGA_1_PM.c ****     {
  87:.\Generated_Source\PSoC5/PGA_1_PM.c ****         /* Component is enabled */
  88:.\Generated_Source\PSoC5/PGA_1_PM.c ****         PGA_1_backup.enableState = 1u;
 110              		.loc 1 88 0
 111 0018 40F20003 		movw	r3, #:lower16:PGA_1_backup
 112 001c C0F20003 		movt	r3, #:upper16:PGA_1_backup
 113 0020 4FF00102 		mov	r2, #1
 114 0024 1A70     		strb	r2, [r3, #0]
 115 0026 06E0     		b	.L7
 116              	.L6:
  89:.\Generated_Source\PSoC5/PGA_1_PM.c ****     }
  90:.\Generated_Source\PSoC5/PGA_1_PM.c ****     else
  91:.\Generated_Source\PSoC5/PGA_1_PM.c ****     {
  92:.\Generated_Source\PSoC5/PGA_1_PM.c ****         /* Component is disabled */
  93:.\Generated_Source\PSoC5/PGA_1_PM.c ****         PGA_1_backup.enableState = 0u;
 117              		.loc 1 93 0
 118 0028 40F20003 		movw	r3, #:lower16:PGA_1_backup
 119 002c C0F20003 		movt	r3, #:upper16:PGA_1_backup
 120 0030 4FF00002 		mov	r2, #0
 121 0034 1A70     		strb	r2, [r3, #0]
 122              	.L7:
  94:.\Generated_Source\PSoC5/PGA_1_PM.c ****     }
  95:.\Generated_Source\PSoC5/PGA_1_PM.c **** 
  96:.\Generated_Source\PSoC5/PGA_1_PM.c ****     /* Stop the configuration */
  97:.\Generated_Source\PSoC5/PGA_1_PM.c ****     PGA_1_Stop();
 123              		.loc 1 97 0
 124 0036 FFF7FEFF 		bl	PGA_1_Stop
  98:.\Generated_Source\PSoC5/PGA_1_PM.c **** 
  99:.\Generated_Source\PSoC5/PGA_1_PM.c ****     /* Save the configuration */
 100:.\Generated_Source\PSoC5/PGA_1_PM.c ****     PGA_1_SaveConfig();
ARM GAS  C:\DOCUME~1\student\LOCALS~1\Temp\cc77S4hI.s 			page 5


 125              		.loc 1 100 0
 126 003a FFF7FEFF 		bl	PGA_1_SaveConfig
 101:.\Generated_Source\PSoC5/PGA_1_PM.c **** }
 127              		.loc 1 101 0
 128 003e 80BD     		pop	{r7, pc}
 129              		.cfi_endproc
 130              	.LFE2:
 131              		.size	PGA_1_Sleep, .-PGA_1_Sleep
 132              		.section	.text.PGA_1_Wakeup,"ax",%progbits
 133              		.align	2
 134              		.global	PGA_1_Wakeup
 135              		.thumb
 136              		.thumb_func
 137              		.type	PGA_1_Wakeup, %function
 138              	PGA_1_Wakeup:
 139              	.LFB3:
 102:.\Generated_Source\PSoC5/PGA_1_PM.c **** 
 103:.\Generated_Source\PSoC5/PGA_1_PM.c **** 
 104:.\Generated_Source\PSoC5/PGA_1_PM.c **** /*******************************************************************************
 105:.\Generated_Source\PSoC5/PGA_1_PM.c **** * Function Name: PGA_1_Wakeup
 106:.\Generated_Source\PSoC5/PGA_1_PM.c **** ********************************************************************************
 107:.\Generated_Source\PSoC5/PGA_1_PM.c **** *
 108:.\Generated_Source\PSoC5/PGA_1_PM.c **** * Summary:
 109:.\Generated_Source\PSoC5/PGA_1_PM.c **** *  Enables block's operation and restores its configuration. Should be called
 110:.\Generated_Source\PSoC5/PGA_1_PM.c **** *  just after awaking from sleep.
 111:.\Generated_Source\PSoC5/PGA_1_PM.c **** *
 112:.\Generated_Source\PSoC5/PGA_1_PM.c **** * Parameters:
 113:.\Generated_Source\PSoC5/PGA_1_PM.c **** *  None
 114:.\Generated_Source\PSoC5/PGA_1_PM.c **** *
 115:.\Generated_Source\PSoC5/PGA_1_PM.c **** * Return:
 116:.\Generated_Source\PSoC5/PGA_1_PM.c **** *  void
 117:.\Generated_Source\PSoC5/PGA_1_PM.c **** *
 118:.\Generated_Source\PSoC5/PGA_1_PM.c **** * Global variables:
 119:.\Generated_Source\PSoC5/PGA_1_PM.c **** *  PGA_1_backup: The structure field 'enableState' is used to 
 120:.\Generated_Source\PSoC5/PGA_1_PM.c **** *  restore the enable state of block after wakeup from sleep mode.
 121:.\Generated_Source\PSoC5/PGA_1_PM.c **** * 
 122:.\Generated_Source\PSoC5/PGA_1_PM.c **** *******************************************************************************/
 123:.\Generated_Source\PSoC5/PGA_1_PM.c **** void PGA_1_Wakeup(void) 
 124:.\Generated_Source\PSoC5/PGA_1_PM.c **** {
 140              		.loc 1 124 0
 141              		.cfi_startproc
 142              		@ args = 0, pretend = 0, frame = 0
 143              		@ frame_needed = 1, uses_anonymous_args = 0
 144 0000 80B5     		push	{r7, lr}
 145              	.LCFI6:
 146              		.cfi_def_cfa_offset 8
 147 0002 00AF     		add	r7, sp, #0
 148              		.cfi_offset 14, -4
 149              		.cfi_offset 7, -8
 150              	.LCFI7:
 151              		.cfi_def_cfa_register 7
 125:.\Generated_Source\PSoC5/PGA_1_PM.c ****     /* Restore the configurations */
 126:.\Generated_Source\PSoC5/PGA_1_PM.c ****     PGA_1_RestoreConfig();
 152              		.loc 1 126 0
 153 0004 FFF7FEFF 		bl	PGA_1_RestoreConfig
 127:.\Generated_Source\PSoC5/PGA_1_PM.c **** 
 128:.\Generated_Source\PSoC5/PGA_1_PM.c ****      /* Enables the component operation */
ARM GAS  C:\DOCUME~1\student\LOCALS~1\Temp\cc77S4hI.s 			page 6


 129:.\Generated_Source\PSoC5/PGA_1_PM.c ****     if(PGA_1_backup.enableState == 1u)
 154              		.loc 1 129 0
 155 0008 40F20003 		movw	r3, #:lower16:PGA_1_backup
 156 000c C0F20003 		movt	r3, #:upper16:PGA_1_backup
 157 0010 1B78     		ldrb	r3, [r3, #0]	@ zero_extendqisi2
 158 0012 012B     		cmp	r3, #1
 159 0014 01D1     		bne	.L11
 130:.\Generated_Source\PSoC5/PGA_1_PM.c ****     {
 131:.\Generated_Source\PSoC5/PGA_1_PM.c ****         PGA_1_Enable();
 160              		.loc 1 131 0
 161 0016 FFF7FEFF 		bl	PGA_1_Enable
 162              	.L11:
 132:.\Generated_Source\PSoC5/PGA_1_PM.c ****     } /* Do nothing if component was disable before */
 133:.\Generated_Source\PSoC5/PGA_1_PM.c **** }
 163              		.loc 1 133 0
 164 001a 80BD     		pop	{r7, pc}
 165              		.cfi_endproc
 166              	.LFE3:
 167              		.size	PGA_1_Wakeup, .-PGA_1_Wakeup
 168              		.text
 169              	.Letext0: