ARM GAS  C:\DOCUME~1\student\LOCALS~1\Temp\ccVyh7v4.s 			page 1


   1              		.syntax unified
   2              		.cpu cortex-m3
   3              		.fpu softvfp
   4              		.eabi_attribute 20, 1
   5              		.eabi_attribute 21, 1
   6              		.eabi_attribute 23, 3
   7              		.eabi_attribute 24, 1
   8              		.eabi_attribute 25, 1
   9              		.eabi_attribute 26, 1
  10              		.eabi_attribute 30, 6
  11              		.eabi_attribute 18, 4
  12              		.thumb
  13              		.file	"rx_int.c"
  20 0000 58010000 		.text
  20      02005E00 
  20      00000201 
  20      FB0E0D00 
  20      01010101 
  21              	.Ltext0:
  22              		.cfi_sections	.debug_frame
  23              		.section	.text.rx_int_Start,"ax",%progbits
  24              		.align	2
  25              		.global	rx_int_Start
  26              		.thumb
  27              		.thumb_func
  28              		.type	rx_int_Start, %function
  29              	rx_int_Start:
  30              	.LFB0:
  31              		.file 1 ".\\Generated_Source\\PSoC5\\rx_int.c"
   1:.\Generated_Source\PSoC5/rx_int.c **** /*******************************************************************************
   2:.\Generated_Source\PSoC5/rx_int.c **** * File Name: rx_int.c  
   3:.\Generated_Source\PSoC5/rx_int.c **** * Version 1.60
   4:.\Generated_Source\PSoC5/rx_int.c **** *
   5:.\Generated_Source\PSoC5/rx_int.c **** *  Description:
   6:.\Generated_Source\PSoC5/rx_int.c **** *   API for controlling the state of an interrupt.
   7:.\Generated_Source\PSoC5/rx_int.c **** *
   8:.\Generated_Source\PSoC5/rx_int.c **** *
   9:.\Generated_Source\PSoC5/rx_int.c **** *  Note:
  10:.\Generated_Source\PSoC5/rx_int.c **** *
  11:.\Generated_Source\PSoC5/rx_int.c **** ********************************************************************************
  12:.\Generated_Source\PSoC5/rx_int.c **** * Copyright 2008-2010, Cypress Semiconductor Corporation.  All rights reserved.
  13:.\Generated_Source\PSoC5/rx_int.c **** * You may use this file only in accordance with the license, terms, conditions, 
  14:.\Generated_Source\PSoC5/rx_int.c **** * disclaimers, and limitations in the end user license agreement accompanying 
  15:.\Generated_Source\PSoC5/rx_int.c **** * the software package with which this file was provided.
  16:.\Generated_Source\PSoC5/rx_int.c **** ********************************************************************************/
  17:.\Generated_Source\PSoC5/rx_int.c **** 
  18:.\Generated_Source\PSoC5/rx_int.c **** 
  19:.\Generated_Source\PSoC5/rx_int.c **** #include <CYDEVICE.H>
  20:.\Generated_Source\PSoC5/rx_int.c **** #include <CYDEVICE_TRM.H>
  21:.\Generated_Source\PSoC5/rx_int.c **** #include <CYLIB.H>
  22:.\Generated_Source\PSoC5/rx_int.c **** #include <rx_int.H>
ARM GAS  C:\DOCUME~1\student\LOCALS~1\Temp\ccVyh7v4.s 			page 2


  23:.\Generated_Source\PSoC5/rx_int.c **** 
  24:.\Generated_Source\PSoC5/rx_int.c **** 
  25:.\Generated_Source\PSoC5/rx_int.c **** /*******************************************************************************
  26:.\Generated_Source\PSoC5/rx_int.c **** *  Place your includes, defines and code here 
  27:.\Generated_Source\PSoC5/rx_int.c **** ********************************************************************************/
  28:.\Generated_Source\PSoC5/rx_int.c **** /* `#START rx_int_intc` */
  29:.\Generated_Source\PSoC5/rx_int.c **** 
  30:.\Generated_Source\PSoC5/rx_int.c **** /* `#END` */
  31:.\Generated_Source\PSoC5/rx_int.c **** 
  32:.\Generated_Source\PSoC5/rx_int.c **** #ifndef CYINT_IRQ_BASE
  33:.\Generated_Source\PSoC5/rx_int.c **** #define CYINT_IRQ_BASE	16
  34:.\Generated_Source\PSoC5/rx_int.c **** #endif
  35:.\Generated_Source\PSoC5/rx_int.c **** #ifndef CYINT_VECT_TABLE
  36:.\Generated_Source\PSoC5/rx_int.c **** #define CYINT_VECT_TABLE    ((cyisraddress **) CYREG_NVIC_VECT_OFFSET)
  37:.\Generated_Source\PSoC5/rx_int.c **** #endif
  38:.\Generated_Source\PSoC5/rx_int.c **** 
  39:.\Generated_Source\PSoC5/rx_int.c **** /* Declared in startup, used to set unused interrupts to. */
  40:.\Generated_Source\PSoC5/rx_int.c **** CY_ISR_PROTO(IntDefaultHandler);
  41:.\Generated_Source\PSoC5/rx_int.c **** 
  42:.\Generated_Source\PSoC5/rx_int.c **** /*******************************************************************************
  43:.\Generated_Source\PSoC5/rx_int.c **** * Function Name: rx_int_Start
  44:.\Generated_Source\PSoC5/rx_int.c **** ********************************************************************************
  45:.\Generated_Source\PSoC5/rx_int.c **** * Summary:
  46:.\Generated_Source\PSoC5/rx_int.c **** *  Set up the interrupt and enable it.
  47:.\Generated_Source\PSoC5/rx_int.c **** *
  48:.\Generated_Source\PSoC5/rx_int.c **** * Parameters:  
  49:.\Generated_Source\PSoC5/rx_int.c **** *   void.
  50:.\Generated_Source\PSoC5/rx_int.c **** *
  51:.\Generated_Source\PSoC5/rx_int.c **** *
  52:.\Generated_Source\PSoC5/rx_int.c **** * Return:
  53:.\Generated_Source\PSoC5/rx_int.c **** *   void.
  54:.\Generated_Source\PSoC5/rx_int.c **** *
  55:.\Generated_Source\PSoC5/rx_int.c **** *******************************************************************************/
  56:.\Generated_Source\PSoC5/rx_int.c **** void rx_int_Start(void)
  57:.\Generated_Source\PSoC5/rx_int.c **** {
  32              		.loc 1 57 0
  33              		.cfi_startproc
  34              		@ args = 0, pretend = 0, frame = 0
  35              		@ frame_needed = 1, uses_anonymous_args = 0
  36 0000 80B5     		push	{r7, lr}
  37              	.LCFI0:
  38              		.cfi_def_cfa_offset 8
  39 0002 00AF     		add	r7, sp, #0
  40              		.cfi_offset 14, -4
  41              		.cfi_offset 7, -8
  42              	.LCFI1:
  43              		.cfi_def_cfa_register 7
  58:.\Generated_Source\PSoC5/rx_int.c ****     /* For all we know the interrupt is active. */
  59:.\Generated_Source\PSoC5/rx_int.c ****     rx_int_Disable();
  44              		.loc 1 59 0
  45 0004 FFF7FEFF 		bl	rx_int_Disable
  60:.\Generated_Source\PSoC5/rx_int.c **** 
  61:.\Generated_Source\PSoC5/rx_int.c ****     /* Set the ISR to point to the rx_int Interrupt. */
  62:.\Generated_Source\PSoC5/rx_int.c ****     rx_int_SetVector(rx_int_Interrupt);
  46              		.loc 1 62 0
  47 0008 40F20000 		movw	r0, #:lower16:rx_int_Interrupt
  48 000c C0F20000 		movt	r0, #:upper16:rx_int_Interrupt
ARM GAS  C:\DOCUME~1\student\LOCALS~1\Temp\ccVyh7v4.s 			page 3


  49 0010 FFF7FEFF 		bl	rx_int_SetVector
  63:.\Generated_Source\PSoC5/rx_int.c **** 
  64:.\Generated_Source\PSoC5/rx_int.c ****     /* Set the priority. */
  65:.\Generated_Source\PSoC5/rx_int.c ****     rx_int_SetPriority(rx_int_INTC_PRIOR_NUMBER);
  50              		.loc 1 65 0
  51 0014 4FF00700 		mov	r0, #7
  52 0018 FFF7FEFF 		bl	rx_int_SetPriority
  66:.\Generated_Source\PSoC5/rx_int.c **** 
  67:.\Generated_Source\PSoC5/rx_int.c ****     /* Enable it. */
  68:.\Generated_Source\PSoC5/rx_int.c ****     rx_int_Enable();
  53              		.loc 1 68 0
  54 001c FFF7FEFF 		bl	rx_int_Enable
  69:.\Generated_Source\PSoC5/rx_int.c **** }
  55              		.loc 1 69 0
  56 0020 80BD     		pop	{r7, pc}
  57              		.cfi_endproc
  58              	.LFE0:
  59              		.size	rx_int_Start, .-rx_int_Start
  60 0022 00BF     		.section	.text.rx_int_StartEx,"ax",%progbits
  61              		.align	2
  62              		.global	rx_int_StartEx
  63              		.thumb
  64              		.thumb_func
  65              		.type	rx_int_StartEx, %function
  66              	rx_int_StartEx:
  67              	.LFB1:
  70:.\Generated_Source\PSoC5/rx_int.c **** 
  71:.\Generated_Source\PSoC5/rx_int.c **** /*******************************************************************************
  72:.\Generated_Source\PSoC5/rx_int.c **** * Function Name: rx_int_StartEx
  73:.\Generated_Source\PSoC5/rx_int.c **** ********************************************************************************
  74:.\Generated_Source\PSoC5/rx_int.c **** * Summary:
  75:.\Generated_Source\PSoC5/rx_int.c **** *  Set up the interrupt and enable it.
  76:.\Generated_Source\PSoC5/rx_int.c **** *
  77:.\Generated_Source\PSoC5/rx_int.c **** * Parameters:  
  78:.\Generated_Source\PSoC5/rx_int.c **** *   address: Address of the ISR to set in the interrupt vector table.
  79:.\Generated_Source\PSoC5/rx_int.c **** *
  80:.\Generated_Source\PSoC5/rx_int.c **** *
  81:.\Generated_Source\PSoC5/rx_int.c **** * Return:
  82:.\Generated_Source\PSoC5/rx_int.c **** *   void.
  83:.\Generated_Source\PSoC5/rx_int.c **** *
  84:.\Generated_Source\PSoC5/rx_int.c **** *******************************************************************************/
  85:.\Generated_Source\PSoC5/rx_int.c **** void rx_int_StartEx(cyisraddress address)
  86:.\Generated_Source\PSoC5/rx_int.c **** {
  68              		.loc 1 86 0
  69              		.cfi_startproc
  70              		@ args = 0, pretend = 0, frame = 8
  71              		@ frame_needed = 1, uses_anonymous_args = 0
  72 0000 80B5     		push	{r7, lr}
  73              	.LCFI2:
  74              		.cfi_def_cfa_offset 8
  75 0002 82B0     		sub	sp, sp, #8
  76              	.LCFI3:
  77              		.cfi_def_cfa_offset 16
  78 0004 00AF     		add	r7, sp, #0
  79              		.cfi_offset 14, -4
  80              		.cfi_offset 7, -8
  81              	.LCFI4:
ARM GAS  C:\DOCUME~1\student\LOCALS~1\Temp\ccVyh7v4.s 			page 4


  82              		.cfi_def_cfa_register 7
  83 0006 7860     		str	r0, [r7, #4]
  87:.\Generated_Source\PSoC5/rx_int.c ****     /* For all we know the interrupt is active. */
  88:.\Generated_Source\PSoC5/rx_int.c ****     rx_int_Disable();
  84              		.loc 1 88 0
  85 0008 FFF7FEFF 		bl	rx_int_Disable
  89:.\Generated_Source\PSoC5/rx_int.c **** 
  90:.\Generated_Source\PSoC5/rx_int.c ****     /* Set the ISR to point to the rx_int Interrupt. */
  91:.\Generated_Source\PSoC5/rx_int.c ****     rx_int_SetVector(address);
  86              		.loc 1 91 0
  87 000c 7868     		ldr	r0, [r7, #4]
  88 000e FFF7FEFF 		bl	rx_int_SetVector
  92:.\Generated_Source\PSoC5/rx_int.c **** 
  93:.\Generated_Source\PSoC5/rx_int.c ****     /* Set the priority. */
  94:.\Generated_Source\PSoC5/rx_int.c ****     rx_int_SetPriority(rx_int_INTC_PRIOR_NUMBER);
  89              		.loc 1 94 0
  90 0012 4FF00700 		mov	r0, #7
  91 0016 FFF7FEFF 		bl	rx_int_SetPriority
  95:.\Generated_Source\PSoC5/rx_int.c **** 
  96:.\Generated_Source\PSoC5/rx_int.c ****     /* Enable it. */
  97:.\Generated_Source\PSoC5/rx_int.c ****     rx_int_Enable();
  92              		.loc 1 97 0
  93 001a FFF7FEFF 		bl	rx_int_Enable
  98:.\Generated_Source\PSoC5/rx_int.c **** }
  94              		.loc 1 98 0
  95 001e 07F10807 		add	r7, r7, #8
  96 0022 BD46     		mov	sp, r7
  97 0024 80BD     		pop	{r7, pc}
  98              		.cfi_endproc
  99              	.LFE1:
 100              		.size	rx_int_StartEx, .-rx_int_StartEx
 101 0026 00BF     		.section	.text.rx_int_Stop,"ax",%progbits
 102              		.align	2
 103              		.global	rx_int_Stop
 104              		.thumb
 105              		.thumb_func
 106              		.type	rx_int_Stop, %function
 107              	rx_int_Stop:
 108              	.LFB2:
  99:.\Generated_Source\PSoC5/rx_int.c **** 
 100:.\Generated_Source\PSoC5/rx_int.c **** /*******************************************************************************
 101:.\Generated_Source\PSoC5/rx_int.c **** * Function Name: rx_int_Stop
 102:.\Generated_Source\PSoC5/rx_int.c **** ********************************************************************************
 103:.\Generated_Source\PSoC5/rx_int.c **** * Summary:
 104:.\Generated_Source\PSoC5/rx_int.c **** *   Disables and removes the interrupt.
 105:.\Generated_Source\PSoC5/rx_int.c **** *
 106:.\Generated_Source\PSoC5/rx_int.c **** * Parameters:  
 107:.\Generated_Source\PSoC5/rx_int.c **** *
 108:.\Generated_Source\PSoC5/rx_int.c **** *
 109:.\Generated_Source\PSoC5/rx_int.c **** * Return:
 110:.\Generated_Source\PSoC5/rx_int.c **** *   void.
 111:.\Generated_Source\PSoC5/rx_int.c **** *
 112:.\Generated_Source\PSoC5/rx_int.c **** *******************************************************************************/
 113:.\Generated_Source\PSoC5/rx_int.c **** void rx_int_Stop(void) 
 114:.\Generated_Source\PSoC5/rx_int.c **** {
 109              		.loc 1 114 0
 110              		.cfi_startproc
ARM GAS  C:\DOCUME~1\student\LOCALS~1\Temp\ccVyh7v4.s 			page 5


 111              		@ args = 0, pretend = 0, frame = 0
 112              		@ frame_needed = 1, uses_anonymous_args = 0
 113 0000 80B5     		push	{r7, lr}
 114              	.LCFI5:
 115              		.cfi_def_cfa_offset 8
 116 0002 00AF     		add	r7, sp, #0
 117              		.cfi_offset 14, -4
 118              		.cfi_offset 7, -8
 119              	.LCFI6:
 120              		.cfi_def_cfa_register 7
 115:.\Generated_Source\PSoC5/rx_int.c ****     /* Disable this interrupt. */
 116:.\Generated_Source\PSoC5/rx_int.c ****     rx_int_Disable();
 121              		.loc 1 116 0
 122 0004 FFF7FEFF 		bl	rx_int_Disable
 117:.\Generated_Source\PSoC5/rx_int.c **** 
 118:.\Generated_Source\PSoC5/rx_int.c ****     /* Set the ISR to point to the passive one. */
 119:.\Generated_Source\PSoC5/rx_int.c ****     rx_int_SetVector(IntDefaultHandler);
 123              		.loc 1 119 0
 124 0008 40F20000 		movw	r0, #:lower16:IntDefaultHandler
 125 000c C0F20000 		movt	r0, #:upper16:IntDefaultHandler
 126 0010 FFF7FEFF 		bl	rx_int_SetVector
 120:.\Generated_Source\PSoC5/rx_int.c **** }
 127              		.loc 1 120 0
 128 0014 80BD     		pop	{r7, pc}
 129              		.cfi_endproc
 130              	.LFE2:
 131              		.size	rx_int_Stop, .-rx_int_Stop
 132 0016 00BF     		.section	.text.rx_int_Interrupt,"ax",%progbits
 133              		.align	2
 134              		.global	rx_int_Interrupt
 135              		.thumb
 136              		.thumb_func
 137              		.type	rx_int_Interrupt, %function
 138              	rx_int_Interrupt:
 139              	.LFB3:
 121:.\Generated_Source\PSoC5/rx_int.c **** 
 122:.\Generated_Source\PSoC5/rx_int.c **** /*******************************************************************************
 123:.\Generated_Source\PSoC5/rx_int.c **** * Function Name: rx_int_Interrupt
 124:.\Generated_Source\PSoC5/rx_int.c **** ********************************************************************************
 125:.\Generated_Source\PSoC5/rx_int.c **** * Summary:
 126:.\Generated_Source\PSoC5/rx_int.c **** *   The default Interrupt Service Routine for rx_int.
 127:.\Generated_Source\PSoC5/rx_int.c **** *
 128:.\Generated_Source\PSoC5/rx_int.c **** *   Add custom code between the coments to keep the next version of this file
 129:.\Generated_Source\PSoC5/rx_int.c **** *   from over writting your code.
 130:.\Generated_Source\PSoC5/rx_int.c **** *
 131:.\Generated_Source\PSoC5/rx_int.c **** *
 132:.\Generated_Source\PSoC5/rx_int.c **** *
 133:.\Generated_Source\PSoC5/rx_int.c **** * Parameters:  
 134:.\Generated_Source\PSoC5/rx_int.c **** *
 135:.\Generated_Source\PSoC5/rx_int.c **** *
 136:.\Generated_Source\PSoC5/rx_int.c **** * Return:
 137:.\Generated_Source\PSoC5/rx_int.c **** *   void.
 138:.\Generated_Source\PSoC5/rx_int.c **** *
 139:.\Generated_Source\PSoC5/rx_int.c **** *******************************************************************************/
 140:.\Generated_Source\PSoC5/rx_int.c **** CY_ISR(rx_int_Interrupt)
 141:.\Generated_Source\PSoC5/rx_int.c **** {
 140              		.loc 1 141 0
ARM GAS  C:\DOCUME~1\student\LOCALS~1\Temp\ccVyh7v4.s 			page 6


 141              		.cfi_startproc
 142              		@ args = 0, pretend = 0, frame = 8
 143              		@ frame_needed = 1, uses_anonymous_args = 0
 144 0000 80B5     		push	{r7, lr}
 145              	.LCFI7:
 146              		.cfi_def_cfa_offset 8
 147 0002 82B0     		sub	sp, sp, #8
 148              	.LCFI8:
 149              		.cfi_def_cfa_offset 16
 150 0004 00AF     		add	r7, sp, #0
 151              		.cfi_offset 14, -4
 152              		.cfi_offset 7, -8
 153              	.LCFI9:
 154              		.cfi_def_cfa_register 7
 142:.\Generated_Source\PSoC5/rx_int.c ****     /*  Place your Interrupt code here. */
 143:.\Generated_Source\PSoC5/rx_int.c ****     /* `#START rx_int_Interrupt` */
 144:.\Generated_Source\PSoC5/rx_int.c ****     uint8 input = UART_ReadRxData();
 155              		.loc 1 144 0
 156 0006 FFF7FEFF 		bl	UART_ReadRxData
 157 000a 0346     		mov	r3, r0
 158 000c FB71     		strb	r3, [r7, #7]
 145:.\Generated_Source\PSoC5/rx_int.c ****     LCD_PutChar(input);     // Print received character to LCD
 159              		.loc 1 145 0
 160 000e FB79     		ldrb	r3, [r7, #7]	@ zero_extendqisi2
 161 0010 1846     		mov	r0, r3
 162 0012 FFF7FEFF 		bl	LCD_PutChar
 146:.\Generated_Source\PSoC5/rx_int.c ****     /* `#END` */
 147:.\Generated_Source\PSoC5/rx_int.c **** }
 163              		.loc 1 147 0
 164 0016 07F10807 		add	r7, r7, #8
 165 001a BD46     		mov	sp, r7
 166 001c 80BD     		pop	{r7, pc}
 167              		.cfi_endproc
 168              	.LFE3:
 169              		.size	rx_int_Interrupt, .-rx_int_Interrupt
 170 001e 00BF     		.section	.text.rx_int_SetVector,"ax",%progbits
 171              		.align	2
 172              		.global	rx_int_SetVector
 173              		.thumb
 174              		.thumb_func
 175              		.type	rx_int_SetVector, %function
 176              	rx_int_SetVector:
 177              	.LFB4:
 148:.\Generated_Source\PSoC5/rx_int.c **** 
 149:.\Generated_Source\PSoC5/rx_int.c **** /*******************************************************************************
 150:.\Generated_Source\PSoC5/rx_int.c **** * Function Name: rx_int_SetVector
 151:.\Generated_Source\PSoC5/rx_int.c **** ********************************************************************************
 152:.\Generated_Source\PSoC5/rx_int.c **** * Summary:
 153:.\Generated_Source\PSoC5/rx_int.c **** *   Change the ISR vector for the Interrupt. Note calling rx_int_Start
 154:.\Generated_Source\PSoC5/rx_int.c **** *   will override any effect this method would have had. To set the vector before
 155:.\Generated_Source\PSoC5/rx_int.c **** *   the component has been started use rx_int_StartEx instead.
 156:.\Generated_Source\PSoC5/rx_int.c **** *
 157:.\Generated_Source\PSoC5/rx_int.c **** *
 158:.\Generated_Source\PSoC5/rx_int.c **** * Parameters:
 159:.\Generated_Source\PSoC5/rx_int.c **** *   address: Address of the ISR to set in the interrupt vector table.
 160:.\Generated_Source\PSoC5/rx_int.c **** *
 161:.\Generated_Source\PSoC5/rx_int.c **** *
ARM GAS  C:\DOCUME~1\student\LOCALS~1\Temp\ccVyh7v4.s 			page 7


 162:.\Generated_Source\PSoC5/rx_int.c **** * Return:
 163:.\Generated_Source\PSoC5/rx_int.c **** *   void.
 164:.\Generated_Source\PSoC5/rx_int.c **** *
 165:.\Generated_Source\PSoC5/rx_int.c **** *
 166:.\Generated_Source\PSoC5/rx_int.c **** *******************************************************************************/
 167:.\Generated_Source\PSoC5/rx_int.c **** void rx_int_SetVector(cyisraddress address) 
 168:.\Generated_Source\PSoC5/rx_int.c **** {
 178              		.loc 1 168 0
 179              		.cfi_startproc
 180              		@ args = 0, pretend = 0, frame = 16
 181              		@ frame_needed = 1, uses_anonymous_args = 0
 182              		@ link register save eliminated.
 183 0000 80B4     		push	{r7}
 184              	.LCFI10:
 185              		.cfi_def_cfa_offset 4
 186 0002 85B0     		sub	sp, sp, #20
 187              	.LCFI11:
 188              		.cfi_def_cfa_offset 24
 189 0004 00AF     		add	r7, sp, #0
 190              		.cfi_offset 7, -4
 191              	.LCFI12:
 192              		.cfi_def_cfa_register 7
 193 0006 7860     		str	r0, [r7, #4]
 169:.\Generated_Source\PSoC5/rx_int.c ****     cyisraddress * ramVectorTable;
 170:.\Generated_Source\PSoC5/rx_int.c **** 
 171:.\Generated_Source\PSoC5/rx_int.c ****     ramVectorTable = (cyisraddress *) *CYINT_VECT_TABLE;
 194              		.loc 1 171 0
 195 0008 4EF60853 		movw	r3, #:lower16:-536810232
 196 000c CEF20003 		movt	r3, #:upper16:-536810232
 197 0010 1B68     		ldr	r3, [r3, #0]
 198 0012 FB60     		str	r3, [r7, #12]
 172:.\Generated_Source\PSoC5/rx_int.c **** 
 173:.\Generated_Source\PSoC5/rx_int.c ****     ramVectorTable[CYINT_IRQ_BASE + rx_int__INTC_NUMBER] = address;
 199              		.loc 1 173 0
 200 0014 FB68     		ldr	r3, [r7, #12]
 201 0016 03F14C03 		add	r3, r3, #76
 202 001a 7A68     		ldr	r2, [r7, #4]
 203 001c 1A60     		str	r2, [r3, #0]
 174:.\Generated_Source\PSoC5/rx_int.c **** }
 204              		.loc 1 174 0
 205 001e 07F11407 		add	r7, r7, #20
 206 0022 BD46     		mov	sp, r7
 207 0024 80BC     		pop	{r7}
 208 0026 7047     		bx	lr
 209              		.cfi_endproc
 210              	.LFE4:
 211              		.size	rx_int_SetVector, .-rx_int_SetVector
 212              		.section	.text.rx_int_GetVector,"ax",%progbits
 213              		.align	2
 214              		.global	rx_int_GetVector
 215              		.thumb
 216              		.thumb_func
 217              		.type	rx_int_GetVector, %function
 218              	rx_int_GetVector:
 219              	.LFB5:
 175:.\Generated_Source\PSoC5/rx_int.c **** 
 176:.\Generated_Source\PSoC5/rx_int.c **** /*******************************************************************************
ARM GAS  C:\DOCUME~1\student\LOCALS~1\Temp\ccVyh7v4.s 			page 8


 177:.\Generated_Source\PSoC5/rx_int.c **** * Function Name: rx_int_GetVector
 178:.\Generated_Source\PSoC5/rx_int.c **** ********************************************************************************
 179:.\Generated_Source\PSoC5/rx_int.c **** * Summary:
 180:.\Generated_Source\PSoC5/rx_int.c **** *   Gets the "address" of the current ISR vector for the Interrupt.
 181:.\Generated_Source\PSoC5/rx_int.c **** *
 182:.\Generated_Source\PSoC5/rx_int.c **** *
 183:.\Generated_Source\PSoC5/rx_int.c **** * Parameters:
 184:.\Generated_Source\PSoC5/rx_int.c **** *   void.
 185:.\Generated_Source\PSoC5/rx_int.c **** *
 186:.\Generated_Source\PSoC5/rx_int.c **** *
 187:.\Generated_Source\PSoC5/rx_int.c **** * Return:
 188:.\Generated_Source\PSoC5/rx_int.c **** *   Address of the ISR in the interrupt vector table.
 189:.\Generated_Source\PSoC5/rx_int.c **** *
 190:.\Generated_Source\PSoC5/rx_int.c **** *
 191:.\Generated_Source\PSoC5/rx_int.c **** *******************************************************************************/
 192:.\Generated_Source\PSoC5/rx_int.c **** cyisraddress rx_int_GetVector(void) 
 193:.\Generated_Source\PSoC5/rx_int.c **** {
 220              		.loc 1 193 0
 221              		.cfi_startproc
 222              		@ args = 0, pretend = 0, frame = 8
 223              		@ frame_needed = 1, uses_anonymous_args = 0
 224              		@ link register save eliminated.
 225 0000 80B4     		push	{r7}
 226              	.LCFI13:
 227              		.cfi_def_cfa_offset 4
 228 0002 83B0     		sub	sp, sp, #12
 229              	.LCFI14:
 230              		.cfi_def_cfa_offset 16
 231 0004 00AF     		add	r7, sp, #0
 232              		.cfi_offset 7, -4
 233              	.LCFI15:
 234              		.cfi_def_cfa_register 7
 194:.\Generated_Source\PSoC5/rx_int.c ****     cyisraddress * ramVectorTable;
 195:.\Generated_Source\PSoC5/rx_int.c **** 
 196:.\Generated_Source\PSoC5/rx_int.c ****     ramVectorTable = (cyisraddress *) *CYINT_VECT_TABLE;
 235              		.loc 1 196 0
 236 0006 4EF60853 		movw	r3, #:lower16:-536810232
 237 000a CEF20003 		movt	r3, #:upper16:-536810232
 238 000e 1B68     		ldr	r3, [r3, #0]
 239 0010 7B60     		str	r3, [r7, #4]
 197:.\Generated_Source\PSoC5/rx_int.c **** 
 198:.\Generated_Source\PSoC5/rx_int.c ****     return ramVectorTable[CYINT_IRQ_BASE + rx_int__INTC_NUMBER];
 240              		.loc 1 198 0
 241 0012 7B68     		ldr	r3, [r7, #4]
 242 0014 03F14C03 		add	r3, r3, #76
 243 0018 1B68     		ldr	r3, [r3, #0]
 199:.\Generated_Source\PSoC5/rx_int.c **** }
 244              		.loc 1 199 0
 245 001a 1846     		mov	r0, r3
 246 001c 07F10C07 		add	r7, r7, #12
 247 0020 BD46     		mov	sp, r7
 248 0022 80BC     		pop	{r7}
 249 0024 7047     		bx	lr
 250              		.cfi_endproc
 251              	.LFE5:
 252              		.size	rx_int_GetVector, .-rx_int_GetVector
 253 0026 00BF     		.section	.text.rx_int_SetPriority,"ax",%progbits
ARM GAS  C:\DOCUME~1\student\LOCALS~1\Temp\ccVyh7v4.s 			page 9


 254              		.align	2
 255              		.global	rx_int_SetPriority
 256              		.thumb
 257              		.thumb_func
 258              		.type	rx_int_SetPriority, %function
 259              	rx_int_SetPriority:
 260              	.LFB6:
 200:.\Generated_Source\PSoC5/rx_int.c **** 
 201:.\Generated_Source\PSoC5/rx_int.c **** /*******************************************************************************
 202:.\Generated_Source\PSoC5/rx_int.c **** * Function Name: rx_int_SetPriority
 203:.\Generated_Source\PSoC5/rx_int.c **** ********************************************************************************
 204:.\Generated_Source\PSoC5/rx_int.c **** * Summary:
 205:.\Generated_Source\PSoC5/rx_int.c **** *   Sets the Priority of the Interrupt. Note calling rx_int_Start
 206:.\Generated_Source\PSoC5/rx_int.c **** *   or rx_int_StartEx will override any effect this method would have had. 
 207:.\Generated_Source\PSoC5/rx_int.c **** *	This method should only be called after rx_int_Start or 
 208:.\Generated_Source\PSoC5/rx_int.c **** *	rx_int_StartEx has been called. To set the initial
 209:.\Generated_Source\PSoC5/rx_int.c **** *	priority for the component use the cydwr file in the tool.
 210:.\Generated_Source\PSoC5/rx_int.c **** *
 211:.\Generated_Source\PSoC5/rx_int.c **** *
 212:.\Generated_Source\PSoC5/rx_int.c **** * Parameters:
 213:.\Generated_Source\PSoC5/rx_int.c **** *   priority: Priority of the interrupt. 0 - 7, 0 being the highest.
 214:.\Generated_Source\PSoC5/rx_int.c **** *
 215:.\Generated_Source\PSoC5/rx_int.c **** *
 216:.\Generated_Source\PSoC5/rx_int.c **** * Return:
 217:.\Generated_Source\PSoC5/rx_int.c **** *   void.
 218:.\Generated_Source\PSoC5/rx_int.c **** *
 219:.\Generated_Source\PSoC5/rx_int.c **** *
 220:.\Generated_Source\PSoC5/rx_int.c **** *******************************************************************************/
 221:.\Generated_Source\PSoC5/rx_int.c **** void rx_int_SetPriority(uint8 priority) 
 222:.\Generated_Source\PSoC5/rx_int.c **** {
 261              		.loc 1 222 0
 262              		.cfi_startproc
 263              		@ args = 0, pretend = 0, frame = 8
 264              		@ frame_needed = 1, uses_anonymous_args = 0
 265              		@ link register save eliminated.
 266 0000 80B4     		push	{r7}
 267              	.LCFI16:
 268              		.cfi_def_cfa_offset 4
 269 0002 83B0     		sub	sp, sp, #12
 270              	.LCFI17:
 271              		.cfi_def_cfa_offset 16
 272 0004 00AF     		add	r7, sp, #0
 273              		.cfi_offset 7, -4
 274              	.LCFI18:
 275              		.cfi_def_cfa_register 7
 276 0006 0346     		mov	r3, r0
 277 0008 FB71     		strb	r3, [r7, #7]
 223:.\Generated_Source\PSoC5/rx_int.c ****     *rx_int_INTC_PRIOR = priority << 5;
 278              		.loc 1 223 0
 279 000a 4EF20343 		movw	r3, #:lower16:-536812541
 280 000e CEF20003 		movt	r3, #:upper16:-536812541
 281 0012 FA79     		ldrb	r2, [r7, #7]
 282 0014 4FEA4212 		lsl	r2, r2, #5
 283 0018 D2B2     		uxtb	r2, r2
 284 001a 1A70     		strb	r2, [r3, #0]
 224:.\Generated_Source\PSoC5/rx_int.c **** }
 285              		.loc 1 224 0
ARM GAS  C:\DOCUME~1\student\LOCALS~1\Temp\ccVyh7v4.s 			page 10


 286 001c 07F10C07 		add	r7, r7, #12
 287 0020 BD46     		mov	sp, r7
 288 0022 80BC     		pop	{r7}
 289 0024 7047     		bx	lr
 290              		.cfi_endproc
 291              	.LFE6:
 292              		.size	rx_int_SetPriority, .-rx_int_SetPriority
 293 0026 00BF     		.section	.text.rx_int_GetPriority,"ax",%progbits
 294              		.align	2
 295              		.global	rx_int_GetPriority
 296              		.thumb
 297              		.thumb_func
 298              		.type	rx_int_GetPriority, %function
 299              	rx_int_GetPriority:
 300              	.LFB7:
 225:.\Generated_Source\PSoC5/rx_int.c **** 
 226:.\Generated_Source\PSoC5/rx_int.c **** /*******************************************************************************
 227:.\Generated_Source\PSoC5/rx_int.c **** * Function Name: rx_int_GetPriority
 228:.\Generated_Source\PSoC5/rx_int.c **** ********************************************************************************
 229:.\Generated_Source\PSoC5/rx_int.c **** * Summary:
 230:.\Generated_Source\PSoC5/rx_int.c **** *   Gets the Priority of the Interrupt.
 231:.\Generated_Source\PSoC5/rx_int.c **** *
 232:.\Generated_Source\PSoC5/rx_int.c **** *
 233:.\Generated_Source\PSoC5/rx_int.c **** * Parameters:
 234:.\Generated_Source\PSoC5/rx_int.c **** *   void.
 235:.\Generated_Source\PSoC5/rx_int.c **** *
 236:.\Generated_Source\PSoC5/rx_int.c **** *
 237:.\Generated_Source\PSoC5/rx_int.c **** * Return:
 238:.\Generated_Source\PSoC5/rx_int.c **** *   Priority of the interrupt. 0 - 7, 0 being the highest.
 239:.\Generated_Source\PSoC5/rx_int.c **** *
 240:.\Generated_Source\PSoC5/rx_int.c **** *
 241:.\Generated_Source\PSoC5/rx_int.c **** *******************************************************************************/
 242:.\Generated_Source\PSoC5/rx_int.c **** uint8 rx_int_GetPriority(void) 
 243:.\Generated_Source\PSoC5/rx_int.c **** {
 301              		.loc 1 243 0
 302              		.cfi_startproc
 303              		@ args = 0, pretend = 0, frame = 8
 304              		@ frame_needed = 1, uses_anonymous_args = 0
 305              		@ link register save eliminated.
 306 0000 80B4     		push	{r7}
 307              	.LCFI19:
 308              		.cfi_def_cfa_offset 4
 309 0002 83B0     		sub	sp, sp, #12
 310              	.LCFI20:
 311              		.cfi_def_cfa_offset 16
 312 0004 00AF     		add	r7, sp, #0
 313              		.cfi_offset 7, -4
 314              	.LCFI21:
 315              		.cfi_def_cfa_register 7
 244:.\Generated_Source\PSoC5/rx_int.c ****     uint8 priority;
 245:.\Generated_Source\PSoC5/rx_int.c **** 
 246:.\Generated_Source\PSoC5/rx_int.c **** 
 247:.\Generated_Source\PSoC5/rx_int.c ****     priority = *rx_int_INTC_PRIOR >> 5;
 316              		.loc 1 247 0
 317 0006 4EF20343 		movw	r3, #:lower16:-536812541
 318 000a CEF20003 		movt	r3, #:upper16:-536812541
 319 000e 1B78     		ldrb	r3, [r3, #0]
ARM GAS  C:\DOCUME~1\student\LOCALS~1\Temp\ccVyh7v4.s 			page 11


 320 0010 DBB2     		uxtb	r3, r3
 321 0012 4FEA5313 		lsr	r3, r3, #5
 322 0016 FB71     		strb	r3, [r7, #7]
 248:.\Generated_Source\PSoC5/rx_int.c **** 
 249:.\Generated_Source\PSoC5/rx_int.c ****     return priority;
 323              		.loc 1 249 0
 324 0018 FB79     		ldrb	r3, [r7, #7]	@ zero_extendqisi2
 250:.\Generated_Source\PSoC5/rx_int.c **** }
 325              		.loc 1 250 0
 326 001a 1846     		mov	r0, r3
 327 001c 07F10C07 		add	r7, r7, #12
 328 0020 BD46     		mov	sp, r7
 329 0022 80BC     		pop	{r7}
 330 0024 7047     		bx	lr
 331              		.cfi_endproc
 332              	.LFE7:
 333              		.size	rx_int_GetPriority, .-rx_int_GetPriority
 334 0026 00BF     		.section	.text.rx_int_Enable,"ax",%progbits
 335              		.align	2
 336              		.global	rx_int_Enable
 337              		.thumb
 338              		.thumb_func
 339              		.type	rx_int_Enable, %function
 340              	rx_int_Enable:
 341              	.LFB8:
 251:.\Generated_Source\PSoC5/rx_int.c **** 
 252:.\Generated_Source\PSoC5/rx_int.c **** /*******************************************************************************
 253:.\Generated_Source\PSoC5/rx_int.c **** * Function Name: rx_int_Enable
 254:.\Generated_Source\PSoC5/rx_int.c **** ********************************************************************************
 255:.\Generated_Source\PSoC5/rx_int.c **** * Summary:
 256:.\Generated_Source\PSoC5/rx_int.c **** *   Enables the interrupt.
 257:.\Generated_Source\PSoC5/rx_int.c **** *
 258:.\Generated_Source\PSoC5/rx_int.c **** *
 259:.\Generated_Source\PSoC5/rx_int.c **** * Parameters:
 260:.\Generated_Source\PSoC5/rx_int.c **** *   void.
 261:.\Generated_Source\PSoC5/rx_int.c **** *
 262:.\Generated_Source\PSoC5/rx_int.c **** *
 263:.\Generated_Source\PSoC5/rx_int.c **** * Return:
 264:.\Generated_Source\PSoC5/rx_int.c **** *   void.
 265:.\Generated_Source\PSoC5/rx_int.c **** *
 266:.\Generated_Source\PSoC5/rx_int.c **** *
 267:.\Generated_Source\PSoC5/rx_int.c **** *******************************************************************************/
 268:.\Generated_Source\PSoC5/rx_int.c **** void rx_int_Enable(void) 
 269:.\Generated_Source\PSoC5/rx_int.c **** {
 342              		.loc 1 269 0
 343              		.cfi_startproc
 344              		@ args = 0, pretend = 0, frame = 0
 345              		@ frame_needed = 1, uses_anonymous_args = 0
 346              		@ link register save eliminated.
 347 0000 80B4     		push	{r7}
 348              	.LCFI22:
 349              		.cfi_def_cfa_offset 4
 350 0002 00AF     		add	r7, sp, #0
 351              		.cfi_offset 7, -4
 352              	.LCFI23:
 353              		.cfi_def_cfa_register 7
 270:.\Generated_Source\PSoC5/rx_int.c ****     /* Enable the general interrupt. */
ARM GAS  C:\DOCUME~1\student\LOCALS~1\Temp\ccVyh7v4.s 			page 12


 271:.\Generated_Source\PSoC5/rx_int.c ****     *rx_int_INTC_SET_EN = rx_int__INTC_MASK;
 354              		.loc 1 271 0
 355 0004 4EF20013 		movw	r3, #:lower16:-536813312
 356 0008 CEF20003 		movt	r3, #:upper16:-536813312
 357 000c 4FF00802 		mov	r2, #8
 358 0010 1A60     		str	r2, [r3, #0]
 272:.\Generated_Source\PSoC5/rx_int.c **** }
 359              		.loc 1 272 0
 360 0012 BD46     		mov	sp, r7
 361 0014 80BC     		pop	{r7}
 362 0016 7047     		bx	lr
 363              		.cfi_endproc
 364              	.LFE8:
 365              		.size	rx_int_Enable, .-rx_int_Enable
 366              		.section	.text.rx_int_GetState,"ax",%progbits
 367              		.align	2
 368              		.global	rx_int_GetState
 369              		.thumb
 370              		.thumb_func
 371              		.type	rx_int_GetState, %function
 372              	rx_int_GetState:
 373              	.LFB9:
 273:.\Generated_Source\PSoC5/rx_int.c **** 
 274:.\Generated_Source\PSoC5/rx_int.c **** /*******************************************************************************
 275:.\Generated_Source\PSoC5/rx_int.c **** * Function Name: rx_int_GetState
 276:.\Generated_Source\PSoC5/rx_int.c **** ********************************************************************************
 277:.\Generated_Source\PSoC5/rx_int.c **** * Summary:
 278:.\Generated_Source\PSoC5/rx_int.c **** *   Gets the state (enabled, disabled) of the Interrupt.
 279:.\Generated_Source\PSoC5/rx_int.c **** *
 280:.\Generated_Source\PSoC5/rx_int.c **** *
 281:.\Generated_Source\PSoC5/rx_int.c **** * Parameters:
 282:.\Generated_Source\PSoC5/rx_int.c **** *   void.
 283:.\Generated_Source\PSoC5/rx_int.c **** *
 284:.\Generated_Source\PSoC5/rx_int.c **** *
 285:.\Generated_Source\PSoC5/rx_int.c **** * Return:
 286:.\Generated_Source\PSoC5/rx_int.c **** *   1 if enabled, 0 if disabled.
 287:.\Generated_Source\PSoC5/rx_int.c **** *
 288:.\Generated_Source\PSoC5/rx_int.c **** *
 289:.\Generated_Source\PSoC5/rx_int.c **** *******************************************************************************/
 290:.\Generated_Source\PSoC5/rx_int.c **** uint8 rx_int_GetState(void) 
 291:.\Generated_Source\PSoC5/rx_int.c **** {
 374              		.loc 1 291 0
 375              		.cfi_startproc
 376              		@ args = 0, pretend = 0, frame = 0
 377              		@ frame_needed = 1, uses_anonymous_args = 0
 378              		@ link register save eliminated.
 379 0000 80B4     		push	{r7}
 380              	.LCFI24:
 381              		.cfi_def_cfa_offset 4
 382 0002 00AF     		add	r7, sp, #0
 383              		.cfi_offset 7, -4
 384              	.LCFI25:
 385              		.cfi_def_cfa_register 7
 292:.\Generated_Source\PSoC5/rx_int.c ****     /* Get the state of the general interrupt. */
 293:.\Generated_Source\PSoC5/rx_int.c ****     return (*rx_int_INTC_SET_EN & rx_int__INTC_MASK) ? 1:0;
 386              		.loc 1 293 0
 387 0004 4EF20013 		movw	r3, #:lower16:-536813312
ARM GAS  C:\DOCUME~1\student\LOCALS~1\Temp\ccVyh7v4.s 			page 13


 388 0008 CEF20003 		movt	r3, #:upper16:-536813312
 389 000c 1B68     		ldr	r3, [r3, #0]
 390 000e 03F00803 		and	r3, r3, #8
 391 0012 002B     		cmp	r3, #0
 392 0014 0CBF     		ite	eq
 393 0016 0023     		moveq	r3, #0
 394 0018 0123     		movne	r3, #1
 294:.\Generated_Source\PSoC5/rx_int.c **** }
 395              		.loc 1 294 0
 396 001a 1846     		mov	r0, r3
 397 001c BD46     		mov	sp, r7
 398 001e 80BC     		pop	{r7}
 399 0020 7047     		bx	lr
 400              		.cfi_endproc
 401              	.LFE9:
 402              		.size	rx_int_GetState, .-rx_int_GetState
 403 0022 00BF     		.section	.text.rx_int_Disable,"ax",%progbits
 404              		.align	2
 405              		.global	rx_int_Disable
 406              		.thumb
 407              		.thumb_func
 408              		.type	rx_int_Disable, %function
 409              	rx_int_Disable:
 410              	.LFB10:
 295:.\Generated_Source\PSoC5/rx_int.c **** 
 296:.\Generated_Source\PSoC5/rx_int.c **** /*******************************************************************************
 297:.\Generated_Source\PSoC5/rx_int.c **** * Function Name: rx_int_Disable
 298:.\Generated_Source\PSoC5/rx_int.c **** ********************************************************************************
 299:.\Generated_Source\PSoC5/rx_int.c **** * Summary:
 300:.\Generated_Source\PSoC5/rx_int.c **** *   Disables the Interrupt.
 301:.\Generated_Source\PSoC5/rx_int.c **** *
 302:.\Generated_Source\PSoC5/rx_int.c **** *
 303:.\Generated_Source\PSoC5/rx_int.c **** * Parameters:
 304:.\Generated_Source\PSoC5/rx_int.c **** *   void.
 305:.\Generated_Source\PSoC5/rx_int.c **** *
 306:.\Generated_Source\PSoC5/rx_int.c **** *
 307:.\Generated_Source\PSoC5/rx_int.c **** * Return:
 308:.\Generated_Source\PSoC5/rx_int.c **** *   void.
 309:.\Generated_Source\PSoC5/rx_int.c **** *
 310:.\Generated_Source\PSoC5/rx_int.c **** *
 311:.\Generated_Source\PSoC5/rx_int.c **** *******************************************************************************/
 312:.\Generated_Source\PSoC5/rx_int.c **** void rx_int_Disable(void) 
 313:.\Generated_Source\PSoC5/rx_int.c **** {
 411              		.loc 1 313 0
 412              		.cfi_startproc
 413              		@ args = 0, pretend = 0, frame = 0
 414              		@ frame_needed = 1, uses_anonymous_args = 0
 415              		@ link register save eliminated.
 416 0000 80B4     		push	{r7}
 417              	.LCFI26:
 418              		.cfi_def_cfa_offset 4
 419 0002 00AF     		add	r7, sp, #0
 420              		.cfi_offset 7, -4
 421              	.LCFI27:
 422              		.cfi_def_cfa_register 7
 314:.\Generated_Source\PSoC5/rx_int.c ****     /* Disable the general interrupt. */
 315:.\Generated_Source\PSoC5/rx_int.c ****     *rx_int_INTC_CLR_EN = rx_int__INTC_MASK;
ARM GAS  C:\DOCUME~1\student\LOCALS~1\Temp\ccVyh7v4.s 			page 14


 423              		.loc 1 315 0
 424 0004 4EF28013 		movw	r3, #:lower16:-536813184
 425 0008 CEF20003 		movt	r3, #:upper16:-536813184
 426 000c 4FF00802 		mov	r2, #8
 427 0010 1A60     		str	r2, [r3, #0]
 316:.\Generated_Source\PSoC5/rx_int.c **** }
 428              		.loc 1 316 0
 429 0012 BD46     		mov	sp, r7
 430 0014 80BC     		pop	{r7}
 431 0016 7047     		bx	lr
 432              		.cfi_endproc
 433              	.LFE10:
 434              		.size	rx_int_Disable, .-rx_int_Disable
 435              		.section	.text.rx_int_SetPending,"ax",%progbits
 436              		.align	2
 437              		.global	rx_int_SetPending
 438              		.thumb
 439              		.thumb_func
 440              		.type	rx_int_SetPending, %function
 441              	rx_int_SetPending:
 442              	.LFB11:
 317:.\Generated_Source\PSoC5/rx_int.c **** 
 318:.\Generated_Source\PSoC5/rx_int.c **** /*******************************************************************************
 319:.\Generated_Source\PSoC5/rx_int.c **** * Function Name: rx_int_SetPending
 320:.\Generated_Source\PSoC5/rx_int.c **** ********************************************************************************
 321:.\Generated_Source\PSoC5/rx_int.c **** * Summary:
 322:.\Generated_Source\PSoC5/rx_int.c **** *   Causes the Interrupt to enter the pending state, a software method of
 323:.\Generated_Source\PSoC5/rx_int.c **** *   generating the interrupt.
 324:.\Generated_Source\PSoC5/rx_int.c **** *
 325:.\Generated_Source\PSoC5/rx_int.c **** *
 326:.\Generated_Source\PSoC5/rx_int.c **** * Parameters:
 327:.\Generated_Source\PSoC5/rx_int.c **** *   void.
 328:.\Generated_Source\PSoC5/rx_int.c **** *
 329:.\Generated_Source\PSoC5/rx_int.c **** *
 330:.\Generated_Source\PSoC5/rx_int.c **** * Return:
 331:.\Generated_Source\PSoC5/rx_int.c **** *   void.
 332:.\Generated_Source\PSoC5/rx_int.c **** *
 333:.\Generated_Source\PSoC5/rx_int.c **** *
 334:.\Generated_Source\PSoC5/rx_int.c **** *******************************************************************************/
 335:.\Generated_Source\PSoC5/rx_int.c **** void rx_int_SetPending(void) 
 336:.\Generated_Source\PSoC5/rx_int.c **** {
 443              		.loc 1 336 0
 444              		.cfi_startproc
 445              		@ args = 0, pretend = 0, frame = 0
 446              		@ frame_needed = 1, uses_anonymous_args = 0
 447              		@ link register save eliminated.
 448 0000 80B4     		push	{r7}
 449              	.LCFI28:
 450              		.cfi_def_cfa_offset 4
 451 0002 00AF     		add	r7, sp, #0
 452              		.cfi_offset 7, -4
 453              	.LCFI29:
 454              		.cfi_def_cfa_register 7
 337:.\Generated_Source\PSoC5/rx_int.c ****     *rx_int_INTC_SET_PD = rx_int__INTC_MASK;
 455              		.loc 1 337 0
 456 0004 4EF20023 		movw	r3, #:lower16:-536813056
 457 0008 CEF20003 		movt	r3, #:upper16:-536813056
ARM GAS  C:\DOCUME~1\student\LOCALS~1\Temp\ccVyh7v4.s 			page 15


 458 000c 4FF00802 		mov	r2, #8
 459 0010 1A60     		str	r2, [r3, #0]
 338:.\Generated_Source\PSoC5/rx_int.c **** }
 460              		.loc 1 338 0
 461 0012 BD46     		mov	sp, r7
 462 0014 80BC     		pop	{r7}
 463 0016 7047     		bx	lr
 464              		.cfi_endproc
 465              	.LFE11:
 466              		.size	rx_int_SetPending, .-rx_int_SetPending
 467              		.section	.text.rx_int_ClearPending,"ax",%progbits
 468              		.align	2
 469              		.global	rx_int_ClearPending
 470              		.thumb
 471              		.thumb_func
 472              		.type	rx_int_ClearPending, %function
 473              	rx_int_ClearPending:
 474              	.LFB12:
 339:.\Generated_Source\PSoC5/rx_int.c **** 
 340:.\Generated_Source\PSoC5/rx_int.c **** /*******************************************************************************
 341:.\Generated_Source\PSoC5/rx_int.c **** * Function Name: rx_int_ClearPending
 342:.\Generated_Source\PSoC5/rx_int.c **** ********************************************************************************
 343:.\Generated_Source\PSoC5/rx_int.c **** * Summary:
 344:.\Generated_Source\PSoC5/rx_int.c **** *   Clears a pending interrupt.
 345:.\Generated_Source\PSoC5/rx_int.c **** *
 346:.\Generated_Source\PSoC5/rx_int.c **** * Parameters:
 347:.\Generated_Source\PSoC5/rx_int.c **** *   void.
 348:.\Generated_Source\PSoC5/rx_int.c **** *
 349:.\Generated_Source\PSoC5/rx_int.c **** *
 350:.\Generated_Source\PSoC5/rx_int.c **** * Return:
 351:.\Generated_Source\PSoC5/rx_int.c **** *   void.
 352:.\Generated_Source\PSoC5/rx_int.c **** *
 353:.\Generated_Source\PSoC5/rx_int.c **** *
 354:.\Generated_Source\PSoC5/rx_int.c **** *******************************************************************************/
 355:.\Generated_Source\PSoC5/rx_int.c **** void rx_int_ClearPending(void) 
 356:.\Generated_Source\PSoC5/rx_int.c **** {
 475              		.loc 1 356 0
 476              		.cfi_startproc
 477              		@ args = 0, pretend = 0, frame = 0
 478              		@ frame_needed = 1, uses_anonymous_args = 0
 479              		@ link register save eliminated.
 480 0000 80B4     		push	{r7}
 481              	.LCFI30:
 482              		.cfi_def_cfa_offset 4
 483 0002 00AF     		add	r7, sp, #0
 484              		.cfi_offset 7, -4
 485              	.LCFI31:
 486              		.cfi_def_cfa_register 7
 357:.\Generated_Source\PSoC5/rx_int.c ****     *rx_int_INTC_CLR_PD = rx_int__INTC_MASK;
 487              		.loc 1 357 0
 488 0004 4EF28023 		movw	r3, #:lower16:-536812928
 489 0008 CEF20003 		movt	r3, #:upper16:-536812928
 490 000c 4FF00802 		mov	r2, #8
 491 0010 1A60     		str	r2, [r3, #0]
 358:.\Generated_Source\PSoC5/rx_int.c **** }
 492              		.loc 1 358 0
 493 0012 BD46     		mov	sp, r7
ARM GAS  C:\DOCUME~1\student\LOCALS~1\Temp\ccVyh7v4.s 			page 16


 494 0014 80BC     		pop	{r7}
 495 0016 7047     		bx	lr
 496              		.cfi_endproc
 497              	.LFE12:
 498              		.size	rx_int_ClearPending, .-rx_int_ClearPending
 499              		.text
 500              	.Letext0: