ARM GAS  C:\DOCUME~1\student\LOCALS~1\Temp\ccTcJUb5.s 			page 1


   1              		.syntax unified
   2              		.cpu cortex-m3
   3              		.fpu softvfp
   4              		.eabi_attribute 20, 1
   5              		.eabi_attribute 21, 1
   6              		.eabi_attribute 23, 3
   7              		.eabi_attribute 24, 1
   8              		.eabi_attribute 25, 1
   9              		.eabi_attribute 26, 1
  10              		.eabi_attribute 30, 6
  11              		.eabi_attribute 18, 4
  12              		.thumb
  13              		.file	"main.c"
  14              		.section	.debug_abbrev,"",%progbits
  15              	.Ldebug_abbrev0:
  16              		.section	.debug_info,"",%progbits
  17              	.Ldebug_info0:
  18              		.section	.debug_line,"",%progbits
  19              	.Ldebug_line0:
  20 0000 97020000 		.text
  20      02007B00 
  20      00000201 
  20      FB0E0D00 
  20      01010101 
  21              	.Ltext0:
  22              		.cfi_sections	.debug_frame
  23              		.global	mod
  24              		.bss
  25              		.align	3
  26              		.type	mod, %object
  27              		.size	mod, 1024
  28              	mod:
  29 0000 00000000 		.space	1024
  29      00000000 
  29      00000000 
  29      00000000 
  29      00000000 
  30              		.global	data_re
  31              		.align	3
  32              		.type	data_re, %object
  33              		.size	data_re, 1024
  34              	data_re:
  35 0400 00000000 		.space	1024
  35      00000000 
  35      00000000 
  35      00000000 
  35      00000000 
  36              		.global	data_imm
  37              		.align	3
  38              		.type	data_imm, %object
  39              		.size	data_imm, 1024
  40              	data_imm:
  41 0800 00000000 		.space	1024
  41      00000000 
  41      00000000 
  41      00000000 
  41      00000000 
ARM GAS  C:\DOCUME~1\student\LOCALS~1\Temp\ccTcJUb5.s 			page 2


  42              		.global	mod_avg
  43              		.align	2
  44              		.type	mod_avg, %object
  45              		.size	mod_avg, 64
  46              	mod_avg:
  47 0c00 00000000 		.space	64
  47      00000000 
  47      00000000 
  47      00000000 
  47      00000000 
  48              		.global	__aeabi_dmul
  49              		.global	__aeabi_dsub
  50              		.global	__aeabi_dadd
  51              		.global	__aeabi_ddiv
  52              		.global	__aeabi_i2d
  53              		.section	.text.FFT,"ax",%progbits
  54              		.align	2
  55              		.global	FFT
  56              		.thumb
  57              		.thumb_func
  58              		.type	FFT, %function
  59              	FFT:
  60              	.LFB29:
  61              		.file 1 ".\\/fft.h"
   1:.\/fft.h      **** #include <math.h>				 //mathematical library
   2:.\/fft.h      **** 
   3:.\/fft.h      **** // FFT parameters
   4:.\/fft.h      **** #define N_points (128)              //number of points				
   5:.\/fft.h      **** #define exponent log(128)/log(2)  //log2(N_points); for N_points=64 -> exponent=6
   6:.\/fft.h      **** #define N_avg (8)          // Number of points to average into one value
   7:.\/fft.h      **** 
   8:.\/fft.h      **** // FFT variables
   9:.\/fft.h      **** double mod[N_points]={0};        //arrays
  10:.\/fft.h      **** double data_re[N_points]={0};
  11:.\/fft.h      **** double data_imm[N_points]={0};
  12:.\/fft.h      **** 
  13:.\/fft.h      **** int mod_avg[N_points/N_avg] = {0};
  14:.\/fft.h      **** 
  15:.\/fft.h      **** // FFT function
  16:.\/fft.h      **** short FFT(int dir,long m,double *x,double *y)
  17:.\/fft.h      **** {
  62              		.loc 1 17 0
  63              		.cfi_startproc
  64              		@ args = 0, pretend = 0, frame = 128
  65              		@ frame_needed = 1, uses_anonymous_args = 0
  66 0000 F0B5     		push	{r4, r5, r6, r7, lr}
  67              	.LCFI0:
  68              		.cfi_def_cfa_offset 20
  69 0002 A1B0     		sub	sp, sp, #132
  70              	.LCFI1:
  71              		.cfi_def_cfa_offset 152
  72 0004 00AF     		add	r7, sp, #0
  73              		.cfi_offset 14, -4
  74              		.cfi_offset 7, -8
  75              		.cfi_offset 6, -12
  76              		.cfi_offset 5, -16
  77              		.cfi_offset 4, -20
ARM GAS  C:\DOCUME~1\student\LOCALS~1\Temp\ccTcJUb5.s 			page 3


  78              	.LCFI2:
  79              		.cfi_def_cfa_register 7
  80 0006 F860     		str	r0, [r7, #12]
  81 0008 B960     		str	r1, [r7, #8]
  82 000a 7A60     		str	r2, [r7, #4]
  83 000c 3B60     		str	r3, [r7, #0]
  18:.\/fft.h      ****    // dir:  forward (=1) o inverse (!=1) transform; 
  19:.\/fft.h      ****    // m exponent;
  20:.\/fft.h      ****    
  21:.\/fft.h      ****    long n,i,i1,j,k,i2,l,l1,l2;
  22:.\/fft.h      ****    double c1,c2,tx,ty,t1,t2,u1,u2,z;
  23:.\/fft.h      **** 
  24:.\/fft.h      ****    /* Calculate the number of points */
  25:.\/fft.h      ****    n = 1;
  84              		.loc 1 25 0
  85 000e 4FF00103 		mov	r3, #1
  86 0012 7B61     		str	r3, [r7, #20]
  26:.\/fft.h      ****    for (i=0;i<m;i++) 
  87              		.loc 1 26 0
  88 0014 4FF00003 		mov	r3, #0
  89 0018 BB61     		str	r3, [r7, #24]
  90 001a 07E0     		b	.L2
  91              	.L3:
  27:.\/fft.h      ****       n *= 2;
  92              		.loc 1 27 0
  93 001c 7B69     		ldr	r3, [r7, #20]
  94 001e 4FEA4303 		lsl	r3, r3, #1
  95 0022 7B61     		str	r3, [r7, #20]
  96              		.loc 1 26 0
  97 0024 BB69     		ldr	r3, [r7, #24]
  98 0026 03F10103 		add	r3, r3, #1
  99 002a BB61     		str	r3, [r7, #24]
 100              	.L2:
 101 002c BA69     		ldr	r2, [r7, #24]
 102 002e BB68     		ldr	r3, [r7, #8]
 103 0030 9A42     		cmp	r2, r3
 104 0032 F3DB     		blt	.L3
  28:.\/fft.h      **** 
  29:.\/fft.h      ****    /* Do the bit reversal */
  30:.\/fft.h      ****    i2 = n >> 1;
 105              		.loc 1 30 0
 106 0034 7B69     		ldr	r3, [r7, #20]
 107 0036 4FEA6303 		asr	r3, r3, #1
 108 003a BB62     		str	r3, [r7, #40]
  31:.\/fft.h      ****    j = 0;
 109              		.loc 1 31 0
 110 003c 4FF00003 		mov	r3, #0
 111 0040 3B62     		str	r3, [r7, #32]
  32:.\/fft.h      ****    for (i=0;i<n-1;i++) {
 112              		.loc 1 32 0
 113 0042 4FF00003 		mov	r3, #0
 114 0046 BB61     		str	r3, [r7, #24]
 115 0048 5FE0     		b	.L4
 116              	.L8:
  33:.\/fft.h      ****       if (i < j) {
 117              		.loc 1 33 0
 118 004a BA69     		ldr	r2, [r7, #24]
ARM GAS  C:\DOCUME~1\student\LOCALS~1\Temp\ccTcJUb5.s 			page 4


 119 004c 3B6A     		ldr	r3, [r7, #32]
 120 004e 9A42     		cmp	r2, r3
 121 0050 43DA     		bge	.L5
  34:.\/fft.h      ****          tx = x[i];
 122              		.loc 1 34 0
 123 0052 BB69     		ldr	r3, [r7, #24]
 124 0054 4FEAC302 		lsl	r2, r3, #3
 125 0058 7B68     		ldr	r3, [r7, #4]
 126 005a 1344     		add	r3, r2, r3
 127 005c D3E90023 		ldrd	r2, [r3]
 128 0060 C7E91223 		strd	r2, [r7, #72]
  35:.\/fft.h      ****          ty = y[i];
 129              		.loc 1 35 0
 130 0064 BB69     		ldr	r3, [r7, #24]
 131 0066 4FEAC302 		lsl	r2, r3, #3
 132 006a 3B68     		ldr	r3, [r7, #0]
 133 006c 1344     		add	r3, r2, r3
 134 006e D3E90023 		ldrd	r2, [r3]
 135 0072 C7E91423 		strd	r2, [r7, #80]
  36:.\/fft.h      ****          x[i] = x[j];
 136              		.loc 1 36 0
 137 0076 BB69     		ldr	r3, [r7, #24]
 138 0078 4FEAC302 		lsl	r2, r3, #3
 139 007c 7B68     		ldr	r3, [r7, #4]
 140 007e 02EB0301 		add	r1, r2, r3
 141 0082 3B6A     		ldr	r3, [r7, #32]
 142 0084 4FEAC302 		lsl	r2, r3, #3
 143 0088 7B68     		ldr	r3, [r7, #4]
 144 008a 1344     		add	r3, r2, r3
 145 008c D3E90023 		ldrd	r2, [r3]
 146 0090 C1E90023 		strd	r2, [r1]
  37:.\/fft.h      ****          y[i] = y[j];
 147              		.loc 1 37 0
 148 0094 BB69     		ldr	r3, [r7, #24]
 149 0096 4FEAC302 		lsl	r2, r3, #3
 150 009a 3B68     		ldr	r3, [r7, #0]
 151 009c 02EB0301 		add	r1, r2, r3
 152 00a0 3B6A     		ldr	r3, [r7, #32]
 153 00a2 4FEAC302 		lsl	r2, r3, #3
 154 00a6 3B68     		ldr	r3, [r7, #0]
 155 00a8 1344     		add	r3, r2, r3
 156 00aa D3E90023 		ldrd	r2, [r3]
 157 00ae C1E90023 		strd	r2, [r1]
  38:.\/fft.h      ****          x[j] = tx;
 158              		.loc 1 38 0
 159 00b2 3B6A     		ldr	r3, [r7, #32]
 160 00b4 4FEAC302 		lsl	r2, r3, #3
 161 00b8 7B68     		ldr	r3, [r7, #4]
 162 00ba 02EB0301 		add	r1, r2, r3
 163 00be D7E91223 		ldrd	r2, [r7, #72]
 164 00c2 C1E90023 		strd	r2, [r1]
  39:.\/fft.h      ****          y[j] = ty;
 165              		.loc 1 39 0
 166 00c6 3B6A     		ldr	r3, [r7, #32]
 167 00c8 4FEAC302 		lsl	r2, r3, #3
 168 00cc 3B68     		ldr	r3, [r7, #0]
 169 00ce 02EB0301 		add	r1, r2, r3
ARM GAS  C:\DOCUME~1\student\LOCALS~1\Temp\ccTcJUb5.s 			page 5


 170 00d2 D7E91423 		ldrd	r2, [r7, #80]
 171 00d6 C1E90023 		strd	r2, [r1]
 172              	.L5:
  40:.\/fft.h      ****       }
  41:.\/fft.h      ****       k = i2;
 173              		.loc 1 41 0
 174 00da BB6A     		ldr	r3, [r7, #40]
 175 00dc 7B62     		str	r3, [r7, #36]
  42:.\/fft.h      ****       while (k <= j) {
 176              		.loc 1 42 0
 177 00de 08E0     		b	.L6
 178              	.L7:
  43:.\/fft.h      ****          j -= k;
 179              		.loc 1 43 0
 180 00e0 3A6A     		ldr	r2, [r7, #32]
 181 00e2 7B6A     		ldr	r3, [r7, #36]
 182 00e4 C3EB0203 		rsb	r3, r3, r2
 183 00e8 3B62     		str	r3, [r7, #32]
  44:.\/fft.h      ****          k >>= 1;
 184              		.loc 1 44 0
 185 00ea 7B6A     		ldr	r3, [r7, #36]
 186 00ec 4FEA6303 		asr	r3, r3, #1
 187 00f0 7B62     		str	r3, [r7, #36]
 188              	.L6:
 189              		.loc 1 42 0
 190 00f2 7A6A     		ldr	r2, [r7, #36]
 191 00f4 3B6A     		ldr	r3, [r7, #32]
 192 00f6 9A42     		cmp	r2, r3
 193 00f8 F2DD     		ble	.L7
  45:.\/fft.h      ****       }
  46:.\/fft.h      ****       j += k;
 194              		.loc 1 46 0
 195 00fa 3A6A     		ldr	r2, [r7, #32]
 196 00fc 7B6A     		ldr	r3, [r7, #36]
 197 00fe 1344     		add	r3, r2, r3
 198 0100 3B62     		str	r3, [r7, #32]
 199              		.loc 1 32 0
 200 0102 BB69     		ldr	r3, [r7, #24]
 201 0104 03F10103 		add	r3, r3, #1
 202 0108 BB61     		str	r3, [r7, #24]
 203              	.L4:
 204 010a 7B69     		ldr	r3, [r7, #20]
 205 010c 03F1FF32 		add	r2, r3, #-1
 206 0110 BB69     		ldr	r3, [r7, #24]
 207 0112 9A42     		cmp	r2, r3
 208 0114 99DC     		bgt	.L8
  47:.\/fft.h      ****    }
  48:.\/fft.h      **** 
  49:.\/fft.h      ****    /* Compute the FFT */
  50:.\/fft.h      ****    c1 = -1.0; 
 209              		.loc 1 50 0
 210 0116 4FF00002 		mov	r2, #0
 211 011a 4FF03F43 		mov	r3, #-1090519040
 212 011e 03F57003 		add	r3, r3, #15728640
 213 0122 C7E90E23 		strd	r2, [r7, #56]
  51:.\/fft.h      ****    c2 = 0.0;
 214              		.loc 1 51 0
ARM GAS  C:\DOCUME~1\student\LOCALS~1\Temp\ccTcJUb5.s 			page 6


 215 0126 4FF00002 		mov	r2, #0
 216 012a 4FF00003 		mov	r3, #0
 217 012e C7E91023 		strd	r2, [r7, #64]
  52:.\/fft.h      ****    l2 = 1;
 218              		.loc 1 52 0
 219 0132 4FF00103 		mov	r3, #1
 220 0136 7B63     		str	r3, [r7, #52]
  53:.\/fft.h      ****    for (l=0;l<m;l++) {
 221              		.loc 1 53 0
 222 0138 4FF00003 		mov	r3, #0
 223 013c FB62     		str	r3, [r7, #44]
 224 013e 5DE1     		b	.L9
 225              	.L15:
  54:.\/fft.h      ****       l1 = l2;
 226              		.loc 1 54 0
 227 0140 7B6B     		ldr	r3, [r7, #52]
 228 0142 3B63     		str	r3, [r7, #48]
  55:.\/fft.h      ****       l2 <<= 1;
 229              		.loc 1 55 0
 230 0144 7B6B     		ldr	r3, [r7, #52]
 231 0146 4FEA4303 		lsl	r3, r3, #1
 232 014a 7B63     		str	r3, [r7, #52]
  56:.\/fft.h      ****       u1 = 1.0; 
 233              		.loc 1 56 0
 234 014c 4FF00002 		mov	r2, #0
 235 0150 4FF07E53 		mov	r3, #1065353216
 236 0154 03F5E003 		add	r3, r3, #7340032
 237 0158 C7E91A23 		strd	r2, [r7, #104]
  57:.\/fft.h      ****       u2 = 0.0;
 238              		.loc 1 57 0
 239 015c 4FF00002 		mov	r2, #0
 240 0160 4FF00003 		mov	r3, #0
 241 0164 C7E91C23 		strd	r2, [r7, #112]
  58:.\/fft.h      ****       for (j=0;j<l1;j++) {
 242              		.loc 1 58 0
 243 0168 4FF00003 		mov	r3, #0
 244 016c 3B62     		str	r3, [r7, #32]
 245 016e F7E0     		b	.L10
 246              	.L13:
  59:.\/fft.h      ****          for (i=j;i<n;i+=l2) {
 247              		.loc 1 59 0
 248 0170 3B6A     		ldr	r3, [r7, #32]
 249 0172 BB61     		str	r3, [r7, #24]
 250 0174 B3E0     		b	.L11
 251              	.L12:
  60:.\/fft.h      ****             i1 = i + l1;
 252              		.loc 1 60 0
 253 0176 BA69     		ldr	r2, [r7, #24]
 254 0178 3B6B     		ldr	r3, [r7, #48]
 255 017a 1344     		add	r3, r2, r3
 256 017c FB61     		str	r3, [r7, #28]
  61:.\/fft.h      ****             t1 = u1 * x[i1] - u2 * y[i1];
 257              		.loc 1 61 0
 258 017e FB69     		ldr	r3, [r7, #28]
 259 0180 4FEAC302 		lsl	r2, r3, #3
 260 0184 7B68     		ldr	r3, [r7, #4]
 261 0186 1344     		add	r3, r2, r3
ARM GAS  C:\DOCUME~1\student\LOCALS~1\Temp\ccTcJUb5.s 			page 7


 262 0188 D3E90023 		ldrd	r2, [r3]
 263 018c 1046     		mov	r0, r2
 264 018e 1946     		mov	r1, r3
 265 0190 D7E91A23 		ldrd	r2, [r7, #104]
 266 0194 FFF7FEFF 		bl	__aeabi_dmul
 267 0198 0246     		mov	r2, r0
 268 019a 0B46     		mov	r3, r1
 269 019c 1446     		mov	r4, r2
 270 019e 1D46     		mov	r5, r3
 271 01a0 FB69     		ldr	r3, [r7, #28]
 272 01a2 4FEAC302 		lsl	r2, r3, #3
 273 01a6 3B68     		ldr	r3, [r7, #0]
 274 01a8 1344     		add	r3, r2, r3
 275 01aa D3E90023 		ldrd	r2, [r3]
 276 01ae 1046     		mov	r0, r2
 277 01b0 1946     		mov	r1, r3
 278 01b2 D7E91C23 		ldrd	r2, [r7, #112]
 279 01b6 FFF7FEFF 		bl	__aeabi_dmul
 280 01ba 0246     		mov	r2, r0
 281 01bc 0B46     		mov	r3, r1
 282 01be 2046     		mov	r0, r4
 283 01c0 2946     		mov	r1, r5
 284 01c2 FFF7FEFF 		bl	__aeabi_dsub
 285 01c6 0246     		mov	r2, r0
 286 01c8 0B46     		mov	r3, r1
 287 01ca C7E91623 		strd	r2, [r7, #88]
  62:.\/fft.h      ****             t2 = u1 * y[i1] + u2 * x[i1];
 288              		.loc 1 62 0
 289 01ce FB69     		ldr	r3, [r7, #28]
 290 01d0 4FEAC302 		lsl	r2, r3, #3
 291 01d4 3B68     		ldr	r3, [r7, #0]
 292 01d6 1344     		add	r3, r2, r3
 293 01d8 D3E90023 		ldrd	r2, [r3]
 294 01dc 1046     		mov	r0, r2
 295 01de 1946     		mov	r1, r3
 296 01e0 D7E91A23 		ldrd	r2, [r7, #104]
 297 01e4 FFF7FEFF 		bl	__aeabi_dmul
 298 01e8 0246     		mov	r2, r0
 299 01ea 0B46     		mov	r3, r1
 300 01ec 1446     		mov	r4, r2
 301 01ee 1D46     		mov	r5, r3
 302 01f0 FB69     		ldr	r3, [r7, #28]
 303 01f2 4FEAC302 		lsl	r2, r3, #3
 304 01f6 7B68     		ldr	r3, [r7, #4]
 305 01f8 1344     		add	r3, r2, r3
 306 01fa D3E90023 		ldrd	r2, [r3]
 307 01fe 1046     		mov	r0, r2
 308 0200 1946     		mov	r1, r3
 309 0202 D7E91C23 		ldrd	r2, [r7, #112]
 310 0206 FFF7FEFF 		bl	__aeabi_dmul
 311 020a 0246     		mov	r2, r0
 312 020c 0B46     		mov	r3, r1
 313 020e 2046     		mov	r0, r4
 314 0210 2946     		mov	r1, r5
 315 0212 FFF7FEFF 		bl	__aeabi_dadd
 316 0216 0246     		mov	r2, r0
 317 0218 0B46     		mov	r3, r1
ARM GAS  C:\DOCUME~1\student\LOCALS~1\Temp\ccTcJUb5.s 			page 8


 318 021a C7E91823 		strd	r2, [r7, #96]
  63:.\/fft.h      ****             x[i1] = x[i] - t1; 
 319              		.loc 1 63 0
 320 021e FB69     		ldr	r3, [r7, #28]
 321 0220 4FEAC302 		lsl	r2, r3, #3
 322 0224 7B68     		ldr	r3, [r7, #4]
 323 0226 02EB0304 		add	r4, r2, r3
 324 022a BB69     		ldr	r3, [r7, #24]
 325 022c 4FEAC302 		lsl	r2, r3, #3
 326 0230 7B68     		ldr	r3, [r7, #4]
 327 0232 1344     		add	r3, r2, r3
 328 0234 D3E90023 		ldrd	r2, [r3]
 329 0238 1046     		mov	r0, r2
 330 023a 1946     		mov	r1, r3
 331 023c D7E91623 		ldrd	r2, [r7, #88]
 332 0240 FFF7FEFF 		bl	__aeabi_dsub
 333 0244 0246     		mov	r2, r0
 334 0246 0B46     		mov	r3, r1
 335 0248 C4E90023 		strd	r2, [r4]
  64:.\/fft.h      ****             y[i1] = y[i] - t2;
 336              		.loc 1 64 0
 337 024c FB69     		ldr	r3, [r7, #28]
 338 024e 4FEAC302 		lsl	r2, r3, #3
 339 0252 3B68     		ldr	r3, [r7, #0]
 340 0254 02EB0304 		add	r4, r2, r3
 341 0258 BB69     		ldr	r3, [r7, #24]
 342 025a 4FEAC302 		lsl	r2, r3, #3
 343 025e 3B68     		ldr	r3, [r7, #0]
 344 0260 1344     		add	r3, r2, r3
 345 0262 D3E90023 		ldrd	r2, [r3]
 346 0266 1046     		mov	r0, r2
 347 0268 1946     		mov	r1, r3
 348 026a D7E91823 		ldrd	r2, [r7, #96]
 349 026e FFF7FEFF 		bl	__aeabi_dsub
 350 0272 0246     		mov	r2, r0
 351 0274 0B46     		mov	r3, r1
 352 0276 C4E90023 		strd	r2, [r4]
  65:.\/fft.h      ****             x[i] += t1;
 353              		.loc 1 65 0
 354 027a BB69     		ldr	r3, [r7, #24]
 355 027c 4FEAC302 		lsl	r2, r3, #3
 356 0280 7B68     		ldr	r3, [r7, #4]
 357 0282 02EB0304 		add	r4, r2, r3
 358 0286 BB69     		ldr	r3, [r7, #24]
 359 0288 4FEAC302 		lsl	r2, r3, #3
 360 028c 7B68     		ldr	r3, [r7, #4]
 361 028e 1344     		add	r3, r2, r3
 362 0290 D3E90023 		ldrd	r2, [r3]
 363 0294 1046     		mov	r0, r2
 364 0296 1946     		mov	r1, r3
 365 0298 D7E91623 		ldrd	r2, [r7, #88]
 366 029c FFF7FEFF 		bl	__aeabi_dadd
 367 02a0 0246     		mov	r2, r0
 368 02a2 0B46     		mov	r3, r1
 369 02a4 C4E90023 		strd	r2, [r4]
  66:.\/fft.h      ****             y[i] += t2;
 370              		.loc 1 66 0
ARM GAS  C:\DOCUME~1\student\LOCALS~1\Temp\ccTcJUb5.s 			page 9


 371 02a8 BB69     		ldr	r3, [r7, #24]
 372 02aa 4FEAC302 		lsl	r2, r3, #3
 373 02ae 3B68     		ldr	r3, [r7, #0]
 374 02b0 02EB0304 		add	r4, r2, r3
 375 02b4 BB69     		ldr	r3, [r7, #24]
 376 02b6 4FEAC302 		lsl	r2, r3, #3
 377 02ba 3B68     		ldr	r3, [r7, #0]
 378 02bc 1344     		add	r3, r2, r3
 379 02be D3E90023 		ldrd	r2, [r3]
 380 02c2 1046     		mov	r0, r2
 381 02c4 1946     		mov	r1, r3
 382 02c6 D7E91823 		ldrd	r2, [r7, #96]
 383 02ca FFF7FEFF 		bl	__aeabi_dadd
 384 02ce 0246     		mov	r2, r0
 385 02d0 0B46     		mov	r3, r1
 386 02d2 C4E90023 		strd	r2, [r4]
 387              		.loc 1 59 0
 388 02d6 BA69     		ldr	r2, [r7, #24]
 389 02d8 7B6B     		ldr	r3, [r7, #52]
 390 02da 1344     		add	r3, r2, r3
 391 02dc BB61     		str	r3, [r7, #24]
 392              	.L11:
 393 02de BA69     		ldr	r2, [r7, #24]
 394 02e0 7B69     		ldr	r3, [r7, #20]
 395 02e2 9A42     		cmp	r2, r3
 396 02e4 FFF647AF 		blt	.L12
  67:.\/fft.h      ****          }
  68:.\/fft.h      ****          z =  u1 * c1 - u2 * c2;
 397              		.loc 1 68 0
 398 02e8 D7E91A01 		ldrd	r0, [r7, #104]
 399 02ec D7E90E23 		ldrd	r2, [r7, #56]
 400 02f0 FFF7FEFF 		bl	__aeabi_dmul
 401 02f4 0246     		mov	r2, r0
 402 02f6 0B46     		mov	r3, r1
 403 02f8 1446     		mov	r4, r2
 404 02fa 1D46     		mov	r5, r3
 405 02fc D7E91C01 		ldrd	r0, [r7, #112]
 406 0300 D7E91023 		ldrd	r2, [r7, #64]
 407 0304 FFF7FEFF 		bl	__aeabi_dmul
 408 0308 0246     		mov	r2, r0
 409 030a 0B46     		mov	r3, r1
 410 030c 2046     		mov	r0, r4
 411 030e 2946     		mov	r1, r5
 412 0310 FFF7FEFF 		bl	__aeabi_dsub
 413 0314 0246     		mov	r2, r0
 414 0316 0B46     		mov	r3, r1
 415 0318 C7E91E23 		strd	r2, [r7, #120]
  69:.\/fft.h      ****          u2 = u1 * c2 + u2 * c1;
 416              		.loc 1 69 0
 417 031c D7E91A01 		ldrd	r0, [r7, #104]
 418 0320 D7E91023 		ldrd	r2, [r7, #64]
 419 0324 FFF7FEFF 		bl	__aeabi_dmul
 420 0328 0246     		mov	r2, r0
 421 032a 0B46     		mov	r3, r1
 422 032c 1446     		mov	r4, r2
 423 032e 1D46     		mov	r5, r3
 424 0330 D7E91C01 		ldrd	r0, [r7, #112]
ARM GAS  C:\DOCUME~1\student\LOCALS~1\Temp\ccTcJUb5.s 			page 10


 425 0334 D7E90E23 		ldrd	r2, [r7, #56]
 426 0338 FFF7FEFF 		bl	__aeabi_dmul
 427 033c 0246     		mov	r2, r0
 428 033e 0B46     		mov	r3, r1
 429 0340 2046     		mov	r0, r4
 430 0342 2946     		mov	r1, r5
 431 0344 FFF7FEFF 		bl	__aeabi_dadd
 432 0348 0246     		mov	r2, r0
 433 034a 0B46     		mov	r3, r1
 434 034c C7E91C23 		strd	r2, [r7, #112]
  70:.\/fft.h      ****          u1 = z;
 435              		.loc 1 70 0
 436 0350 D7E91E23 		ldrd	r2, [r7, #120]
 437 0354 C7E91A23 		strd	r2, [r7, #104]
 438              		.loc 1 58 0
 439 0358 3B6A     		ldr	r3, [r7, #32]
 440 035a 03F10103 		add	r3, r3, #1
 441 035e 3B62     		str	r3, [r7, #32]
 442              	.L10:
 443 0360 3A6A     		ldr	r2, [r7, #32]
 444 0362 3B6B     		ldr	r3, [r7, #48]
 445 0364 9A42     		cmp	r2, r3
 446 0366 FFF603AF 		blt	.L13
  71:.\/fft.h      ****       }
  72:.\/fft.h      ****       c2 = sqrt((1.0 - c1) / 2.0);
 447              		.loc 1 72 0
 448 036a 4FF00000 		mov	r0, #0
 449 036e 4FF07E51 		mov	r1, #1065353216
 450 0372 01F5E001 		add	r1, r1, #7340032
 451 0376 D7E90E23 		ldrd	r2, [r7, #56]
 452 037a FFF7FEFF 		bl	__aeabi_dsub
 453 037e 0246     		mov	r2, r0
 454 0380 0B46     		mov	r3, r1
 455 0382 1046     		mov	r0, r2
 456 0384 1946     		mov	r1, r3
 457 0386 4FF00002 		mov	r2, #0
 458 038a 4FF08043 		mov	r3, #1073741824
 459 038e FFF7FEFF 		bl	__aeabi_ddiv
 460 0392 0246     		mov	r2, r0
 461 0394 0B46     		mov	r3, r1
 462 0396 1046     		mov	r0, r2
 463 0398 1946     		mov	r1, r3
 464 039a FFF7FEFF 		bl	sqrt
 465 039e 0246     		mov	r2, r0
 466 03a0 0B46     		mov	r3, r1
 467 03a2 C7E91023 		strd	r2, [r7, #64]
  73:.\/fft.h      ****       if (dir == 1) 
 468              		.loc 1 73 0
 469 03a6 FB68     		ldr	r3, [r7, #12]
 470 03a8 012B     		cmp	r3, #1
 471 03aa 05D1     		bne	.L14
  74:.\/fft.h      ****          c2 = -c2;
 472              		.loc 1 74 0
 473 03ac 3B6C     		ldr	r3, [r7, #64]
 474 03ae 3B64     		str	r3, [r7, #64]
 475 03b0 7B6C     		ldr	r3, [r7, #68]
 476 03b2 83F00043 		eor	r3, r3, #-2147483648
ARM GAS  C:\DOCUME~1\student\LOCALS~1\Temp\ccTcJUb5.s 			page 11


 477 03b6 7B64     		str	r3, [r7, #68]
 478              	.L14:
  75:.\/fft.h      ****       c1 = sqrt((1.0 + c1) / 2.0);
 479              		.loc 1 75 0
 480 03b8 D7E90E01 		ldrd	r0, [r7, #56]
 481 03bc 4FF00002 		mov	r2, #0
 482 03c0 4FF07E53 		mov	r3, #1065353216
 483 03c4 03F5E003 		add	r3, r3, #7340032
 484 03c8 FFF7FEFF 		bl	__aeabi_dadd
 485 03cc 0246     		mov	r2, r0
 486 03ce 0B46     		mov	r3, r1
 487 03d0 1046     		mov	r0, r2
 488 03d2 1946     		mov	r1, r3
 489 03d4 4FF00002 		mov	r2, #0
 490 03d8 4FF08043 		mov	r3, #1073741824
 491 03dc FFF7FEFF 		bl	__aeabi_ddiv
 492 03e0 0246     		mov	r2, r0
 493 03e2 0B46     		mov	r3, r1
 494 03e4 1046     		mov	r0, r2
 495 03e6 1946     		mov	r1, r3
 496 03e8 FFF7FEFF 		bl	sqrt
 497 03ec 0246     		mov	r2, r0
 498 03ee 0B46     		mov	r3, r1
 499 03f0 C7E90E23 		strd	r2, [r7, #56]
 500              		.loc 1 53 0
 501 03f4 FB6A     		ldr	r3, [r7, #44]
 502 03f6 03F10103 		add	r3, r3, #1
 503 03fa FB62     		str	r3, [r7, #44]
 504              	.L9:
 505 03fc FA6A     		ldr	r2, [r7, #44]
 506 03fe BB68     		ldr	r3, [r7, #8]
 507 0400 9A42     		cmp	r2, r3
 508 0402 FFF69DAE 		blt	.L15
  76:.\/fft.h      ****    }
  77:.\/fft.h      **** 
  78:.\/fft.h      ****    /* Scaling factor for forward transform */
  79:.\/fft.h      ****    if (dir == 1) {
 509              		.loc 1 79 0
 510 0406 FB68     		ldr	r3, [r7, #12]
 511 0408 012B     		cmp	r3, #1
 512 040a 3FD1     		bne	.L16
  80:.\/fft.h      ****       for (i=0;i<n;i++) {
 513              		.loc 1 80 0
 514 040c 4FF00003 		mov	r3, #0
 515 0410 BB61     		str	r3, [r7, #24]
 516 0412 37E0     		b	.L17
 517              	.L18:
  81:.\/fft.h      ****          x[i] /= n;
 518              		.loc 1 81 0
 519 0414 BB69     		ldr	r3, [r7, #24]
 520 0416 4FEAC302 		lsl	r2, r3, #3
 521 041a 7B68     		ldr	r3, [r7, #4]
 522 041c 02EB0306 		add	r6, r2, r3
 523 0420 BB69     		ldr	r3, [r7, #24]
 524 0422 4FEAC302 		lsl	r2, r3, #3
 525 0426 7B68     		ldr	r3, [r7, #4]
 526 0428 1344     		add	r3, r2, r3
ARM GAS  C:\DOCUME~1\student\LOCALS~1\Temp\ccTcJUb5.s 			page 12


 527 042a D3E90045 		ldrd	r4, [r3]
 528 042e 7869     		ldr	r0, [r7, #20]
 529 0430 FFF7FEFF 		bl	__aeabi_i2d
 530 0434 0246     		mov	r2, r0
 531 0436 0B46     		mov	r3, r1
 532 0438 2046     		mov	r0, r4
 533 043a 2946     		mov	r1, r5
 534 043c FFF7FEFF 		bl	__aeabi_ddiv
 535 0440 0246     		mov	r2, r0
 536 0442 0B46     		mov	r3, r1
 537 0444 C6E90023 		strd	r2, [r6]
  82:.\/fft.h      ****          y[i] /= n;
 538              		.loc 1 82 0
 539 0448 BB69     		ldr	r3, [r7, #24]
 540 044a 4FEAC302 		lsl	r2, r3, #3
 541 044e 3B68     		ldr	r3, [r7, #0]
 542 0450 02EB0306 		add	r6, r2, r3
 543 0454 BB69     		ldr	r3, [r7, #24]
 544 0456 4FEAC302 		lsl	r2, r3, #3
 545 045a 3B68     		ldr	r3, [r7, #0]
 546 045c 1344     		add	r3, r2, r3
 547 045e D3E90045 		ldrd	r4, [r3]
 548 0462 7869     		ldr	r0, [r7, #20]
 549 0464 FFF7FEFF 		bl	__aeabi_i2d
 550 0468 0246     		mov	r2, r0
 551 046a 0B46     		mov	r3, r1
 552 046c 2046     		mov	r0, r4
 553 046e 2946     		mov	r1, r5
 554 0470 FFF7FEFF 		bl	__aeabi_ddiv
 555 0474 0246     		mov	r2, r0
 556 0476 0B46     		mov	r3, r1
 557 0478 C6E90023 		strd	r2, [r6]
 558              		.loc 1 80 0
 559 047c BB69     		ldr	r3, [r7, #24]
 560 047e 03F10103 		add	r3, r3, #1
 561 0482 BB61     		str	r3, [r7, #24]
 562              	.L17:
 563 0484 BA69     		ldr	r2, [r7, #24]
 564 0486 7B69     		ldr	r3, [r7, #20]
 565 0488 9A42     		cmp	r2, r3
 566 048a C3DB     		blt	.L18
 567              	.L16:
  83:.\/fft.h      ****       }
  84:.\/fft.h      ****    }
  85:.\/fft.h      ****    
  86:.\/fft.h      ****    for(i=0;i<N_points;i++)
 568              		.loc 1 86 0
 569 048c 4FF00003 		mov	r3, #0
 570 0490 BB61     		str	r3, [r7, #24]
 571 0492 59E0     		b	.L19
 572              	.L20:
  87:.\/fft.h      ****    /* Absolute value */
  88:.\/fft.h      ****    mod[i]=sqrt((data_re[i]*data_re[i])+(data_imm[i]*data_imm[i]))/N_points;   
 573              		.loc 1 88 0
 574 0494 BE69     		ldr	r6, [r7, #24]
 575 0496 BA69     		ldr	r2, [r7, #24]
 576 0498 40F20003 		movw	r3, #:lower16:data_re
ARM GAS  C:\DOCUME~1\student\LOCALS~1\Temp\ccTcJUb5.s 			page 13


 577 049c C0F20003 		movt	r3, #:upper16:data_re
 578 04a0 4FEAC202 		lsl	r2, r2, #3
 579 04a4 1344     		add	r3, r2, r3
 580 04a6 D3E90001 		ldrd	r0, [r3]
 581 04aa BA69     		ldr	r2, [r7, #24]
 582 04ac 40F20003 		movw	r3, #:lower16:data_re
 583 04b0 C0F20003 		movt	r3, #:upper16:data_re
 584 04b4 4FEAC202 		lsl	r2, r2, #3
 585 04b8 1344     		add	r3, r2, r3
 586 04ba D3E90023 		ldrd	r2, [r3]
 587 04be FFF7FEFF 		bl	__aeabi_dmul
 588 04c2 0246     		mov	r2, r0
 589 04c4 0B46     		mov	r3, r1
 590 04c6 1446     		mov	r4, r2
 591 04c8 1D46     		mov	r5, r3
 592 04ca BA69     		ldr	r2, [r7, #24]
 593 04cc 40F20003 		movw	r3, #:lower16:data_imm
 594 04d0 C0F20003 		movt	r3, #:upper16:data_imm
 595 04d4 4FEAC202 		lsl	r2, r2, #3
 596 04d8 1344     		add	r3, r2, r3
 597 04da D3E90001 		ldrd	r0, [r3]
 598 04de BA69     		ldr	r2, [r7, #24]
 599 04e0 40F20003 		movw	r3, #:lower16:data_imm
 600 04e4 C0F20003 		movt	r3, #:upper16:data_imm
 601 04e8 4FEAC202 		lsl	r2, r2, #3
 602 04ec 1344     		add	r3, r2, r3
 603 04ee D3E90023 		ldrd	r2, [r3]
 604 04f2 FFF7FEFF 		bl	__aeabi_dmul
 605 04f6 0246     		mov	r2, r0
 606 04f8 0B46     		mov	r3, r1
 607 04fa 2046     		mov	r0, r4
 608 04fc 2946     		mov	r1, r5
 609 04fe FFF7FEFF 		bl	__aeabi_dadd
 610 0502 0246     		mov	r2, r0
 611 0504 0B46     		mov	r3, r1
 612 0506 1046     		mov	r0, r2
 613 0508 1946     		mov	r1, r3
 614 050a FFF7FEFF 		bl	sqrt
 615 050e 0246     		mov	r2, r0
 616 0510 0B46     		mov	r3, r1
 617 0512 1046     		mov	r0, r2
 618 0514 1946     		mov	r1, r3
 619 0516 4FF00002 		mov	r2, #0
 620 051a 4FF08043 		mov	r3, #1073741824
 621 051e 03F5C003 		add	r3, r3, #6291456
 622 0522 FFF7FEFF 		bl	__aeabi_ddiv
 623 0526 0246     		mov	r2, r0
 624 0528 0B46     		mov	r3, r1
 625 052a 1046     		mov	r0, r2
 626 052c 1946     		mov	r1, r3
 627 052e 40F20003 		movw	r3, #:lower16:mod
 628 0532 C0F20003 		movt	r3, #:upper16:mod
 629 0536 4FEAC602 		lsl	r2, r6, #3
 630 053a 1344     		add	r3, r2, r3
 631 053c C3E90001 		strd	r0, [r3]
 632              		.loc 1 86 0
 633 0540 BB69     		ldr	r3, [r7, #24]
ARM GAS  C:\DOCUME~1\student\LOCALS~1\Temp\ccTcJUb5.s 			page 14


 634 0542 03F10103 		add	r3, r3, #1
 635 0546 BB61     		str	r3, [r7, #24]
 636              	.L19:
 637 0548 BB69     		ldr	r3, [r7, #24]
 638 054a 7F2B     		cmp	r3, #127
 639 054c A2DD     		ble	.L20
  89:.\/fft.h      **** }
 640              		.loc 1 89 0
 641 054e 07F18407 		add	r7, r7, #132
 642 0552 BD46     		mov	sp, r7
 643 0554 F0BD     		pop	{r4, r5, r6, r7, pc}
 644              		.cfi_endproc
 645              	.LFE29:
 646              		.size	FFT, .-FFT
 647 0556 00BF     		.section	.text.ResetFFT,"ax",%progbits
 648              		.align	2
 649              		.global	ResetFFT
 650              		.thumb
 651              		.thumb_func
 652              		.type	ResetFFT, %function
 653              	ResetFFT:
 654              	.LFB30:
  90:.\/fft.h      **** 
  91:.\/fft.h      **** 
  92:.\/fft.h      **** void ResetFFT(){
 655              		.loc 1 92 0
 656              		.cfi_startproc
 657              		@ args = 0, pretend = 0, frame = 8
 658              		@ frame_needed = 1, uses_anonymous_args = 0
 659              		@ link register save eliminated.
 660 0000 80B4     		push	{r7}
 661              	.LCFI3:
 662              		.cfi_def_cfa_offset 4
 663 0002 83B0     		sub	sp, sp, #12
 664              	.LCFI4:
 665              		.cfi_def_cfa_offset 16
 666 0004 00AF     		add	r7, sp, #0
 667              		.cfi_offset 7, -4
 668              	.LCFI5:
 669              		.cfi_def_cfa_register 7
  93:.\/fft.h      ****   int i;
  94:.\/fft.h      ****   for(i=0;i<N_points;i++){    
 670              		.loc 1 94 0
 671 0006 4FF00003 		mov	r3, #0
 672 000a 7B60     		str	r3, [r7, #4]
 673 000c 30E0     		b	.L23
 674              	.L24:
  95:.\/fft.h      ****   mod[i]=0;       //init 0
 675              		.loc 1 95 0
 676 000e 7A68     		ldr	r2, [r7, #4]
 677 0010 40F20003 		movw	r3, #:lower16:mod
 678 0014 C0F20003 		movt	r3, #:upper16:mod
 679 0018 4FEAC202 		lsl	r2, r2, #3
 680 001c 02EB0301 		add	r1, r2, r3
 681 0020 4FF00002 		mov	r2, #0
 682 0024 4FF00003 		mov	r3, #0
 683 0028 C1E90023 		strd	r2, [r1]
ARM GAS  C:\DOCUME~1\student\LOCALS~1\Temp\ccTcJUb5.s 			page 15


  96:.\/fft.h      ****   data_re[i]=0;
 684              		.loc 1 96 0
 685 002c 7A68     		ldr	r2, [r7, #4]
 686 002e 40F20003 		movw	r3, #:lower16:data_re
 687 0032 C0F20003 		movt	r3, #:upper16:data_re
 688 0036 4FEAC202 		lsl	r2, r2, #3
 689 003a 02EB0301 		add	r1, r2, r3
 690 003e 4FF00002 		mov	r2, #0
 691 0042 4FF00003 		mov	r3, #0
 692 0046 C1E90023 		strd	r2, [r1]
  97:.\/fft.h      ****   data_imm[i]=0;
 693              		.loc 1 97 0
 694 004a 7A68     		ldr	r2, [r7, #4]
 695 004c 40F20003 		movw	r3, #:lower16:data_imm
 696 0050 C0F20003 		movt	r3, #:upper16:data_imm
 697 0054 4FEAC202 		lsl	r2, r2, #3
 698 0058 02EB0301 		add	r1, r2, r3
 699 005c 4FF00002 		mov	r2, #0
 700 0060 4FF00003 		mov	r3, #0
 701 0064 C1E90023 		strd	r2, [r1]
 702              		.loc 1 94 0
 703 0068 7B68     		ldr	r3, [r7, #4]
 704 006a 03F10103 		add	r3, r3, #1
 705 006e 7B60     		str	r3, [r7, #4]
 706              	.L23:
 707 0070 7B68     		ldr	r3, [r7, #4]
 708 0072 7F2B     		cmp	r3, #127
 709 0074 CBDD     		ble	.L24
  98:.\/fft.h      ****   }
  99:.\/fft.h      **** }
 710              		.loc 1 99 0
 711 0076 07F10C07 		add	r7, r7, #12
 712 007a BD46     		mov	sp, r7
 713 007c 80BC     		pop	{r7}
 714 007e 7047     		bx	lr
 715              		.cfi_endproc
 716              	.LFE30:
 717              		.size	ResetFFT, .-ResetFFT
 718              		.global	__aeabi_d2iz
 719              		.section	.text.FFTAVG,"ax",%progbits
 720              		.align	2
 721              		.global	FFTAVG
 722              		.thumb
 723              		.thumb_func
 724              		.type	FFTAVG, %function
 725              	FFTAVG:
 726              	.LFB31:
 100:.\/fft.h      **** 
 101:.\/fft.h      **** 
 102:.\/fft.h      **** void FFTAVG(){
 727              		.loc 1 102 0
 728              		.cfi_startproc
 729              		@ args = 0, pretend = 0, frame = 8
 730              		@ frame_needed = 1, uses_anonymous_args = 0
 731 0000 90B5     		push	{r4, r7, lr}
 732              	.LCFI6:
 733              		.cfi_def_cfa_offset 12
ARM GAS  C:\DOCUME~1\student\LOCALS~1\Temp\ccTcJUb5.s 			page 16


 734 0002 83B0     		sub	sp, sp, #12
 735              	.LCFI7:
 736              		.cfi_def_cfa_offset 24
 737 0004 00AF     		add	r7, sp, #0
 738              		.cfi_offset 14, -4
 739              		.cfi_offset 7, -8
 740              		.cfi_offset 4, -12
 741              	.LCFI8:
 742              		.cfi_def_cfa_register 7
 103:.\/fft.h      ****     int i = 0;
 743              		.loc 1 103 0
 744 0006 4FF00003 		mov	r3, #0
 745 000a 3B60     		str	r3, [r7, #0]
 104:.\/fft.h      ****     int j = 0;
 746              		.loc 1 104 0
 747 000c 4FF00003 		mov	r3, #0
 748 0010 7B60     		str	r3, [r7, #4]
 105:.\/fft.h      ****     for(i = 0; i < N_points/N_avg; ++i){
 749              		.loc 1 105 0
 750 0012 4FF00003 		mov	r3, #0
 751 0016 3B60     		str	r3, [r7, #0]
 752 0018 76E0     		b	.L27
 753              	.L34:
 106:.\/fft.h      ****         mod_avg[i] = 0;
 754              		.loc 1 106 0
 755 001a 3A68     		ldr	r2, [r7, #0]
 756 001c 40F20003 		movw	r3, #:lower16:mod_avg
 757 0020 C0F20003 		movt	r3, #:upper16:mod_avg
 758 0024 4FF00001 		mov	r1, #0
 759 0028 43F82210 		str	r1, [r3, r2, lsl #2]
 107:.\/fft.h      ****         
 108:.\/fft.h      ****         // For the averages, skip the first bucket.
 109:.\/fft.h      ****         if( i != 0){
 760              		.loc 1 109 0
 761 002c 3B68     		ldr	r3, [r7, #0]
 762 002e 002B     		cmp	r3, #0
 763 0030 33D0     		beq	.L28
 110:.\/fft.h      ****             for(j = 0; j < N_avg; ++j){
 764              		.loc 1 110 0
 765 0032 4FF00003 		mov	r3, #0
 766 0036 7B60     		str	r3, [r7, #4]
 767 0038 2BE0     		b	.L29
 768              	.L30:
 111:.\/fft.h      ****                 mod_avg[i] += mod[i*N_avg +j];
 769              		.loc 1 111 0
 770 003a 3C68     		ldr	r4, [r7, #0]
 771 003c 3A68     		ldr	r2, [r7, #0]
 772 003e 40F20003 		movw	r3, #:lower16:mod_avg
 773 0042 C0F20003 		movt	r3, #:upper16:mod_avg
 774 0046 53F82230 		ldr	r3, [r3, r2, lsl #2]
 775 004a 1846     		mov	r0, r3
 776 004c FFF7FEFF 		bl	__aeabi_i2d
 777 0050 3B68     		ldr	r3, [r7, #0]
 778 0052 4FEAC302 		lsl	r2, r3, #3
 779 0056 7B68     		ldr	r3, [r7, #4]
 780 0058 1A44     		add	r2, r2, r3
 781 005a 40F20003 		movw	r3, #:lower16:mod
ARM GAS  C:\DOCUME~1\student\LOCALS~1\Temp\ccTcJUb5.s 			page 17


 782 005e C0F20003 		movt	r3, #:upper16:mod
 783 0062 4FEAC202 		lsl	r2, r2, #3
 784 0066 1344     		add	r3, r2, r3
 785 0068 D3E90023 		ldrd	r2, [r3]
 786 006c FFF7FEFF 		bl	__aeabi_dadd
 787 0070 0246     		mov	r2, r0
 788 0072 0B46     		mov	r3, r1
 789 0074 1046     		mov	r0, r2
 790 0076 1946     		mov	r1, r3
 791 0078 FFF7FEFF 		bl	__aeabi_d2iz
 792 007c 0246     		mov	r2, r0
 793 007e 40F20003 		movw	r3, #:lower16:mod_avg
 794 0082 C0F20003 		movt	r3, #:upper16:mod_avg
 795 0086 43F82420 		str	r2, [r3, r4, lsl #2]
 796              		.loc 1 110 0
 797 008a 7B68     		ldr	r3, [r7, #4]
 798 008c 03F10103 		add	r3, r3, #1
 799 0090 7B60     		str	r3, [r7, #4]
 800              	.L29:
 801 0092 7B68     		ldr	r3, [r7, #4]
 802 0094 072B     		cmp	r3, #7
 803 0096 D0DD     		ble	.L30
 804 0098 32E0     		b	.L31
 805              	.L28:
 112:.\/fft.h      ****             }
 113:.\/fft.h      ****             //mod_avg[i] /= N_avg;
 114:.\/fft.h      ****          }else{
 115:.\/fft.h      ****             for(j = 1; j < N_avg; ++j){
 806              		.loc 1 115 0
 807 009a 4FF00103 		mov	r3, #1
 808 009e 7B60     		str	r3, [r7, #4]
 809 00a0 2BE0     		b	.L32
 810              	.L33:
 116:.\/fft.h      ****                 mod_avg[i] += mod[i*N_avg +j];
 811              		.loc 1 116 0
 812 00a2 3C68     		ldr	r4, [r7, #0]
 813 00a4 3A68     		ldr	r2, [r7, #0]
 814 00a6 40F20003 		movw	r3, #:lower16:mod_avg
 815 00aa C0F20003 		movt	r3, #:upper16:mod_avg
 816 00ae 53F82230 		ldr	r3, [r3, r2, lsl #2]
 817 00b2 1846     		mov	r0, r3
 818 00b4 FFF7FEFF 		bl	__aeabi_i2d
 819 00b8 3B68     		ldr	r3, [r7, #0]
 820 00ba 4FEAC302 		lsl	r2, r3, #3
 821 00be 7B68     		ldr	r3, [r7, #4]
 822 00c0 1A44     		add	r2, r2, r3
 823 00c2 40F20003 		movw	r3, #:lower16:mod
 824 00c6 C0F20003 		movt	r3, #:upper16:mod
 825 00ca 4FEAC202 		lsl	r2, r2, #3
 826 00ce 1344     		add	r3, r2, r3
 827 00d0 D3E90023 		ldrd	r2, [r3]
 828 00d4 FFF7FEFF 		bl	__aeabi_dadd
 829 00d8 0246     		mov	r2, r0
 830 00da 0B46     		mov	r3, r1
 831 00dc 1046     		mov	r0, r2
 832 00de 1946     		mov	r1, r3
 833 00e0 FFF7FEFF 		bl	__aeabi_d2iz
ARM GAS  C:\DOCUME~1\student\LOCALS~1\Temp\ccTcJUb5.s 			page 18


 834 00e4 0246     		mov	r2, r0
 835 00e6 40F20003 		movw	r3, #:lower16:mod_avg
 836 00ea C0F20003 		movt	r3, #:upper16:mod_avg
 837 00ee 43F82420 		str	r2, [r3, r4, lsl #2]
 838              		.loc 1 115 0
 839 00f2 7B68     		ldr	r3, [r7, #4]
 840 00f4 03F10103 		add	r3, r3, #1
 841 00f8 7B60     		str	r3, [r7, #4]
 842              	.L32:
 843 00fa 7B68     		ldr	r3, [r7, #4]
 844 00fc 072B     		cmp	r3, #7
 845 00fe D0DD     		ble	.L33
 846              	.L31:
 847              		.loc 1 105 0
 848 0100 3B68     		ldr	r3, [r7, #0]
 849 0102 03F10103 		add	r3, r3, #1
 850 0106 3B60     		str	r3, [r7, #0]
 851              	.L27:
 852 0108 3B68     		ldr	r3, [r7, #0]
 853 010a 0F2B     		cmp	r3, #15
 854 010c 85DD     		ble	.L34
 117:.\/fft.h      ****             }
 118:.\/fft.h      ****             //mod_avg[i] /= N_avg;
 119:.\/fft.h      ****          }
 120:.\/fft.h      ****     }
 121:.\/fft.h      **** }...
 855              		.loc 1 121 0
 856 010e 07F10C07 		add	r7, r7, #12
 857 0112 BD46     		mov	sp, r7
 858 0114 90BD     		pop	{r4, r7, pc}
 859              		.cfi_endproc
 860              	.LFE31:
 861              		.size	FFTAVG, .-FFTAVG
 862              		.global	BEAT_TIMEOUT_MILLS
 863 0116 00BF     		.section	.rodata
 864              		.align	2
 865              		.type	BEAT_TIMEOUT_MILLS, %object
 866              		.size	BEAT_TIMEOUT_MILLS, 4
 867              	BEAT_TIMEOUT_MILLS:
 868 0000 2C010000 		.word	300
 869              		.global	currentTimeMills
 870              		.bss
 871              		.align	2
 872              		.type	currentTimeMills, %object
 873              		.size	currentTimeMills, 4
 874              	currentTimeMills:
 875 0c40 00000000 		.space	4
 876              		.section	.text.updateCurrentTimeMills,"ax",%progbits
 877              		.align	2
 878              		.global	updateCurrentTimeMills
 879              		.thumb
 880              		.thumb_func
 881              		.type	updateCurrentTimeMills, %function
 882              	updateCurrentTimeMills:
 883              	.LFB32:
 884              		.file 2 ".\\/clock.h"
   1:.\/clock.h    **** long currentTimeMills = 0;
ARM GAS  C:\DOCUME~1\student\LOCALS~1\Temp\ccTcJUb5.s 			page 19


   2:.\/clock.h    **** 
   3:.\/clock.h    **** void updateCurrentTimeMills(){
 885              		.loc 2 3 0
 886              		.cfi_startproc
 887              		@ args = 0, pretend = 0, frame = 0
 888              		@ frame_needed = 1, uses_anonymous_args = 0
 889              		@ link register save eliminated.
 890 0000 80B4     		push	{r7}
 891              	.LCFI9:
 892              		.cfi_def_cfa_offset 4
 893 0002 00AF     		add	r7, sp, #0
 894              		.cfi_offset 7, -4
 895              	.LCFI10:
 896              		.cfi_def_cfa_register 7
   4:.\/clock.h    ****     currentTimeMills++;
 897              		.loc 2 4 0
 898 0004 40F20003 		movw	r3, #:lower16:currentTimeMills
 899 0008 C0F20003 		movt	r3, #:upper16:currentTimeMills
 900 000c 1B68     		ldr	r3, [r3, #0]
 901 000e 03F10102 		add	r2, r3, #1
 902 0012 40F20003 		movw	r3, #:lower16:currentTimeMills
 903 0016 C0F20003 		movt	r3, #:upper16:currentTimeMills
 904 001a 1A60     		str	r2, [r3, #0]
   5:.\/clock.h    **** }
 905              		.loc 2 5 0
 906 001c BD46     		mov	sp, r7
 907 001e 80BC     		pop	{r7}
 908 0020 7047     		bx	lr
 909              		.cfi_endproc
 910              	.LFE32:
 911              		.size	updateCurrentTimeMills, .-updateCurrentTimeMills
 912 0022 00BF     		.section	.text.getCurrentTimeMills,"ax",%progbits
 913              		.align	2
 914              		.global	getCurrentTimeMills
 915              		.thumb
 916              		.thumb_func
 917              		.type	getCurrentTimeMills, %function
 918              	getCurrentTimeMills:
 919              	.LFB33:
   6:.\/clock.h    **** 
   7:.\/clock.h    **** long getCurrentTimeMills(){
 920              		.loc 2 7 0
 921              		.cfi_startproc
 922              		@ args = 0, pretend = 0, frame = 0
 923              		@ frame_needed = 1, uses_anonymous_args = 0
 924              		@ link register save eliminated.
 925 0000 80B4     		push	{r7}
 926              	.LCFI11:
 927              		.cfi_def_cfa_offset 4
 928 0002 00AF     		add	r7, sp, #0
 929              		.cfi_offset 7, -4
 930              	.LCFI12:
 931              		.cfi_def_cfa_register 7
   8:.\/clock.h    ****     return currentTimeMills;
 932              		.loc 2 8 0
 933 0004 40F20003 		movw	r3, #:lower16:currentTimeMills
 934 0008 C0F20003 		movt	r3, #:upper16:currentTimeMills
ARM GAS  C:\DOCUME~1\student\LOCALS~1\Temp\ccTcJUb5.s 			page 20


 935 000c 1B68     		ldr	r3, [r3, #0]
   9:.\/clock.h    **** }
 936              		.loc 2 9 0
 937 000e 1846     		mov	r0, r3
 938 0010 BD46     		mov	sp, r7
 939 0012 80BC     		pop	{r7}
 940 0014 7047     		bx	lr
 941              		.cfi_endproc
 942              	.LFE33:
 943              		.size	getCurrentTimeMills, .-getCurrentTimeMills
 944              		.global	adcResult
 945 0016 00BF     		.bss
 946              		.align	1
 947              		.type	adcResult, %object
 948              		.size	adcResult, 2
 949              	adcResult:
 950 0c44 0000     		.space	2
 951              		.comm	max,8,8
 952              		.global	zero
 953 0c46 0000     		.align	3
 954              		.type	zero, %object
 955              		.size	zero, 8
 956              	zero:
 957 0c48 00000000 		.space	8
 957      00000000 
 958              		.global	global_i
 959              		.align	2
 960              		.type	global_i, %object
 961              		.size	global_i, 4
 962              	global_i:
 963 0c50 00000000 		.space	4
 964              		.comm	ind,4,4
 965              		.global	endl
 966 0c54 00000000 		.data
 967              		.align	2
 968              		.type	endl, %object
 969              		.size	endl, 4
 970              	endl:
 971 0000 FFFF0000 		.word	65535
 972              		.comm	beat1,16,4
 973              		.comm	beat2,16,4
 974              		.section	.rodata
 975              		.align	2
 976              	.LC0:
 977 0004 20253032 		.ascii	" %02x\000"
 977      7800
 978 000a 0000     		.section	.text.UARTPrintMod,"ax",%progbits
 979              		.align	2
 980              		.global	UARTPrintMod
 981              		.thumb
 982              		.thumb_func
 983              		.type	UARTPrintMod, %function
 984              	UARTPrintMod:
 985              	.LFB34:
 986              		.file 3 ".\\main.c"
   1:.\main.c      **** #include <device.h>
   2:.\main.c      **** 
ARM GAS  C:\DOCUME~1\student\LOCALS~1\Temp\ccTcJUb5.s 			page 21


   3:.\main.c      **** #include "fft.h" // FFT Processing Libraries
   4:.\main.c      **** #include "state.h"  // FFT Beat State Structs
   5:.\main.c      **** #include "clock.h"
   6:.\main.c      **** 
   7:.\main.c      **** 
   8:.\main.c      **** #define ADC_GAIN (100)
   9:.\main.c      **** #define ADC_SCALE (256.0/4096.0)
  10:.\main.c      **** 
  11:.\main.c      **** 
  12:.\main.c      **** 
  13:.\main.c      **** // FFT Monitoring Values
  14:.\main.c      **** // ----------------------------------------------------------------
  15:.\main.c      **** uint16 adcResult = 0;
  16:.\main.c      **** 
  17:.\main.c      **** double max,zero=0;
  18:.\main.c      **** unsigned int global_i=0;         //index
  19:.\main.c      **** unsigned int ind;         
  20:.\main.c      **** unsigned int endl=65535;  //uart tag
  21:.\main.c      **** 
  22:.\main.c      **** 
  23:.\main.c      **** // FFT State Values
  24:.\main.c      **** // ----------------------------------------------------------------
  25:.\main.c      **** BeatState beat1, beat2;
  26:.\main.c      **** 
  27:.\main.c      **** 
  28:.\main.c      **** void UARTPrintMod(){    //send ABSOLUTE VALUE dat
 987              		.loc 3 28 0
 988              		.cfi_startproc
 989              		@ args = 0, pretend = 0, frame = 40
 990              		@ frame_needed = 1, uses_anonymous_args = 0
 991 0000 80B5     		push	{r7, lr}
 992              	.LCFI13:
 993              		.cfi_def_cfa_offset 8
 994 0002 8AB0     		sub	sp, sp, #40
 995              	.LCFI14:
 996              		.cfi_def_cfa_offset 48
 997 0004 00AF     		add	r7, sp, #0
 998              		.cfi_offset 14, -4
 999              		.cfi_offset 7, -8
 1000              	.LCFI15:
 1001              		.cfi_def_cfa_register 7
  29:.\main.c      ****     char output[32];
  30:.\main.c      ****     //UART_PutChar('D');
  31:.\main.c      ****     int i;
  32:.\main.c      ****     for(i=0;i<N_points;i++){
 1002              		.loc 3 32 0
 1003 0006 4FF00003 		mov	r3, #0
 1004 000a 7B62     		str	r3, [r7, #36]
 1005 000c 21E0     		b	.L41
 1006              	.L42:
  33:.\main.c      ****         // Format output as 2 number hex digits (max value 255)
  34:.\main.c      ****         sprintf(output, " %02x", (int)(mod[i]));
 1007              		.loc 3 34 0
 1008 000e 7A6A     		ldr	r2, [r7, #36]
 1009 0010 40F20003 		movw	r3, #:lower16:mod
 1010 0014 C0F20003 		movt	r3, #:upper16:mod
 1011 0018 4FEAC202 		lsl	r2, r2, #3
ARM GAS  C:\DOCUME~1\student\LOCALS~1\Temp\ccTcJUb5.s 			page 22


 1012 001c 1344     		add	r3, r2, r3
 1013 001e D3E90023 		ldrd	r2, [r3]
 1014 0022 1046     		mov	r0, r2
 1015 0024 1946     		mov	r1, r3
 1016 0026 FFF7FEFF 		bl	__aeabi_d2iz
 1017 002a 0346     		mov	r3, r0
 1018 002c 07F10402 		add	r2, r7, #4
 1019 0030 1046     		mov	r0, r2
 1020 0032 40F20001 		movw	r1, #:lower16:.LC0
 1021 0036 C0F20001 		movt	r1, #:upper16:.LC0
 1022 003a 1A46     		mov	r2, r3
 1023 003c FFF7FEFF 		bl	sprintf
  35:.\main.c      ****         UART_PutString(output);
 1024              		.loc 3 35 0
 1025 0040 07F10403 		add	r3, r7, #4
 1026 0044 1846     		mov	r0, r3
 1027 0046 FFF7FEFF 		bl	UART_PutString
 1028              		.loc 3 32 0
 1029 004a 7B6A     		ldr	r3, [r7, #36]
 1030 004c 03F10103 		add	r3, r3, #1
 1031 0050 7B62     		str	r3, [r7, #36]
 1032              	.L41:
 1033 0052 7B6A     		ldr	r3, [r7, #36]
 1034 0054 7F2B     		cmp	r3, #127
 1035 0056 DADD     		ble	.L42
  36:.\main.c      ****     }
  37:.\main.c      ****     Crlf();
 1036              		.loc 3 37 0
 1037 0058 FFF7FEFF 		bl	Crlf
  38:.\main.c      **** }
 1038              		.loc 3 38 0
 1039 005c 07F12807 		add	r7, r7, #40
 1040 0060 BD46     		mov	sp, r7
 1041 0062 80BD     		pop	{r7, pc}
 1042              		.cfi_endproc
 1043              	.LFE34:
 1044              		.size	UARTPrintMod, .-UARTPrintMod
 1045              		.section	.text.UARTPrintModAvg,"ax",%progbits
 1046              		.align	2
 1047              		.global	UARTPrintModAvg
 1048              		.thumb
 1049              		.thumb_func
 1050              		.type	UARTPrintModAvg, %function
 1051              	UARTPrintModAvg:
 1052              	.LFB35:
  39:.\main.c      **** 
  40:.\main.c      **** 
  41:.\main.c      **** void UARTPrintModAvg(){    //send ABSOLUTE VALUE dat
 1053              		.loc 3 41 0
 1054              		.cfi_startproc
 1055              		@ args = 0, pretend = 0, frame = 40
 1056              		@ frame_needed = 1, uses_anonymous_args = 0
 1057 0000 80B5     		push	{r7, lr}
 1058              	.LCFI16:
 1059              		.cfi_def_cfa_offset 8
 1060 0002 8AB0     		sub	sp, sp, #40
 1061              	.LCFI17:
ARM GAS  C:\DOCUME~1\student\LOCALS~1\Temp\ccTcJUb5.s 			page 23


 1062              		.cfi_def_cfa_offset 48
 1063 0004 00AF     		add	r7, sp, #0
 1064              		.cfi_offset 14, -4
 1065              		.cfi_offset 7, -8
 1066              	.LCFI18:
 1067              		.cfi_def_cfa_register 7
  42:.\main.c      ****     char output[32];  //C character output buffer
  43:.\main.c      ****     //UART_PutChar('A');
  44:.\main.c      ****     int i;
  45:.\main.c      ****     for(i=0;i<N_points/N_avg/2;i++){
 1068              		.loc 3 45 0
 1069 0006 4FF00003 		mov	r3, #0
 1070 000a 7B62     		str	r3, [r7, #36]
 1071 000c 19E0     		b	.L45
 1072              	.L46:
  46:.\main.c      ****         // Format output as 2 number hex digits (max value 255)
  47:.\main.c      ****         sprintf(output, " %02x", (int)(mod_avg[i]));
 1073              		.loc 3 47 0
 1074 000e 7A6A     		ldr	r2, [r7, #36]
 1075 0010 40F20003 		movw	r3, #:lower16:mod_avg
 1076 0014 C0F20003 		movt	r3, #:upper16:mod_avg
 1077 0018 53F82230 		ldr	r3, [r3, r2, lsl #2]
 1078 001c 07F10402 		add	r2, r7, #4
 1079 0020 1046     		mov	r0, r2
 1080 0022 40F20001 		movw	r1, #:lower16:.LC0
 1081 0026 C0F20001 		movt	r1, #:upper16:.LC0
 1082 002a 1A46     		mov	r2, r3
 1083 002c FFF7FEFF 		bl	sprintf
  48:.\main.c      ****         UART_PutString(output);
 1084              		.loc 3 48 0
 1085 0030 07F10403 		add	r3, r7, #4
 1086 0034 1846     		mov	r0, r3
 1087 0036 FFF7FEFF 		bl	UART_PutString
 1088              		.loc 3 45 0
 1089 003a 7B6A     		ldr	r3, [r7, #36]
 1090 003c 03F10103 		add	r3, r3, #1
 1091 0040 7B62     		str	r3, [r7, #36]
 1092              	.L45:
 1093 0042 7B6A     		ldr	r3, [r7, #36]
 1094 0044 072B     		cmp	r3, #7
 1095 0046 E2DD     		ble	.L46
  49:.\main.c      ****     }
  50:.\main.c      ****     Crlf();
 1096              		.loc 3 50 0
 1097 0048 FFF7FEFF 		bl	Crlf
  51:.\main.c      **** }
 1098              		.loc 3 51 0
 1099 004c 07F12807 		add	r7, r7, #40
 1100 0050 BD46     		mov	sp, r7
 1101 0052 80BD     		pop	{r7, pc}
 1102              		.cfi_endproc
 1103              	.LFE35:
 1104              		.size	UARTPrintModAvg, .-UARTPrintModAvg
 1105              		.section	.text.UARTPrintFFTBeatInfo,"ax",%progbits
 1106              		.align	2
 1107              		.global	UARTPrintFFTBeatInfo
 1108              		.thumb
ARM GAS  C:\DOCUME~1\student\LOCALS~1\Temp\ccTcJUb5.s 			page 24


 1109              		.thumb_func
 1110              		.type	UARTPrintFFTBeatInfo, %function
 1111              	UARTPrintFFTBeatInfo:
 1112              	.LFB36:
  52:.\main.c      **** 
  53:.\main.c      **** 
  54:.\main.c      **** void UARTPrintFFTBeatInfo(){
 1113              		.loc 3 54 0
 1114              		.cfi_startproc
 1115              		@ args = 0, pretend = 0, frame = 40
 1116              		@ frame_needed = 1, uses_anonymous_args = 0
 1117 0000 80B5     		push	{r7, lr}
 1118              	.LCFI19:
 1119              		.cfi_def_cfa_offset 8
 1120 0002 8AB0     		sub	sp, sp, #40
 1121              	.LCFI20:
 1122              		.cfi_def_cfa_offset 48
 1123 0004 00AF     		add	r7, sp, #0
 1124              		.cfi_offset 14, -4
 1125              		.cfi_offset 7, -8
 1126              	.LCFI21:
 1127              		.cfi_def_cfa_register 7
  55:.\main.c      ****     char output[32];  //C character output buffer
  56:.\main.c      ****     UART_PutChar('F'); // Indicates start of output
 1128              		.loc 3 56 0
 1129 0006 4FF04600 		mov	r0, #70
 1130 000a FFF7FEFF 		bl	UART_PutChar
  57:.\main.c      ****     int i;
  58:.\main.c      ****     for(i=0;i<N_points/N_avg/2;i++){
 1131              		.loc 3 58 0
 1132 000e 4FF00003 		mov	r3, #0
 1133 0012 7B62     		str	r3, [r7, #36]
 1134 0014 19E0     		b	.L49
 1135              	.L50:
  59:.\main.c      ****         // Format output as 2 number hex digits (max value 255)
  60:.\main.c      ****         sprintf(output, " %02x", (int)(mod_avg[i]));
 1136              		.loc 3 60 0
 1137 0016 7A6A     		ldr	r2, [r7, #36]
 1138 0018 40F20003 		movw	r3, #:lower16:mod_avg
 1139 001c C0F20003 		movt	r3, #:upper16:mod_avg
 1140 0020 53F82230 		ldr	r3, [r3, r2, lsl #2]
 1141 0024 07F10402 		add	r2, r7, #4
 1142 0028 1046     		mov	r0, r2
 1143 002a 40F20001 		movw	r1, #:lower16:.LC0
 1144 002e C0F20001 		movt	r1, #:upper16:.LC0
 1145 0032 1A46     		mov	r2, r3
 1146 0034 FFF7FEFF 		bl	sprintf
  61:.\main.c      ****         UART_PutString(output);
 1147              		.loc 3 61 0
 1148 0038 07F10403 		add	r3, r7, #4
 1149 003c 1846     		mov	r0, r3
 1150 003e FFF7FEFF 		bl	UART_PutString
 1151              		.loc 3 58 0
 1152 0042 7B6A     		ldr	r3, [r7, #36]
 1153 0044 03F10103 		add	r3, r3, #1
 1154 0048 7B62     		str	r3, [r7, #36]
 1155              	.L49:
ARM GAS  C:\DOCUME~1\student\LOCALS~1\Temp\ccTcJUb5.s 			page 25


 1156 004a 7B6A     		ldr	r3, [r7, #36]
 1157 004c 072B     		cmp	r3, #7
 1158 004e E2DD     		ble	.L50
  62:.\main.c      ****     }
  63:.\main.c      ****     UART_PutChar(' '); 
 1159              		.loc 3 63 0
 1160 0050 4FF02000 		mov	r0, #32
 1161 0054 FFF7FEFF 		bl	UART_PutChar
  64:.\main.c      ****     UART_PutChar('B');  // Indicates start of output
 1162              		.loc 3 64 0
 1163 0058 4FF04200 		mov	r0, #66
 1164 005c FFF7FEFF 		bl	UART_PutChar
  65:.\main.c      ****     // Beat1 is bit0, Beat2 is bit 1
  66:.\main.c      ****     if(beat1.isBeat && beat2.isBeat){
 1165              		.loc 3 66 0
 1166 0060 40F20003 		movw	r3, #:lower16:beat1
 1167 0064 C0F20003 		movt	r3, #:upper16:beat1
 1168 0068 1B7B     		ldrb	r3, [r3, #12]	@ zero_extendqisi2
 1169 006a 002B     		cmp	r3, #0
 1170 006c 0BD0     		beq	.L51
 1171 006e 40F20003 		movw	r3, #:lower16:beat2
 1172 0072 C0F20003 		movt	r3, #:upper16:beat2
 1173 0076 1B7B     		ldrb	r3, [r3, #12]	@ zero_extendqisi2
 1174 0078 002B     		cmp	r3, #0
 1175 007a 04D0     		beq	.L51
  67:.\main.c      ****         //UART_PutChar(0x03);
  68:.\main.c      ****         UART_PutChar('3');
 1176              		.loc 3 68 0
 1177 007c 4FF03300 		mov	r0, #51
 1178 0080 FFF7FEFF 		bl	UART_PutChar
 1179              		.loc 3 66 0
 1180 0084 2FE0     		b	.L52
 1181              	.L51:
  69:.\main.c      ****     }else if(beat1.isBeat && !beat2.isBeat){
 1182              		.loc 3 69 0
 1183 0086 40F20003 		movw	r3, #:lower16:beat1
 1184 008a C0F20003 		movt	r3, #:upper16:beat1
 1185 008e 1B7B     		ldrb	r3, [r3, #12]	@ zero_extendqisi2
 1186 0090 002B     		cmp	r3, #0
 1187 0092 0ED0     		beq	.L53
 1188 0094 40F20003 		movw	r3, #:lower16:beat2
 1189 0098 C0F20003 		movt	r3, #:upper16:beat2
 1190 009c 1B7B     		ldrb	r3, [r3, #12]	@ zero_extendqisi2
 1191 009e 83F00103 		eor	r3, r3, #1
 1192 00a2 DBB2     		uxtb	r3, r3
 1193 00a4 002B     		cmp	r3, #0
 1194 00a6 04D0     		beq	.L53
  70:.\main.c      ****         //UART_PutChar(0x01);
  71:.\main.c      ****         UART_PutChar('1');
 1195              		.loc 3 71 0
 1196 00a8 4FF03100 		mov	r0, #49
 1197 00ac FFF7FEFF 		bl	UART_PutChar
 1198              		.loc 3 69 0
 1199 00b0 19E0     		b	.L52
 1200              	.L53:
  72:.\main.c      ****     }else if(!beat1.isBeat && beat2.isBeat){
 1201              		.loc 3 72 0
ARM GAS  C:\DOCUME~1\student\LOCALS~1\Temp\ccTcJUb5.s 			page 26


 1202 00b2 40F20003 		movw	r3, #:lower16:beat1
 1203 00b6 C0F20003 		movt	r3, #:upper16:beat1
 1204 00ba 1B7B     		ldrb	r3, [r3, #12]	@ zero_extendqisi2
 1205 00bc 83F00103 		eor	r3, r3, #1
 1206 00c0 DBB2     		uxtb	r3, r3
 1207 00c2 002B     		cmp	r3, #0
 1208 00c4 0BD0     		beq	.L54
 1209 00c6 40F20003 		movw	r3, #:lower16:beat2
 1210 00ca C0F20003 		movt	r3, #:upper16:beat2
 1211 00ce 1B7B     		ldrb	r3, [r3, #12]	@ zero_extendqisi2
 1212 00d0 002B     		cmp	r3, #0
 1213 00d2 04D0     		beq	.L54
  73:.\main.c      ****         //UART_PutChar(0x02);
  74:.\main.c      ****         UART_PutChar('2');
 1214              		.loc 3 74 0
 1215 00d4 4FF03200 		mov	r0, #50
 1216 00d8 FFF7FEFF 		bl	UART_PutChar
 1217              		.loc 3 72 0
 1218 00dc 03E0     		b	.L52
 1219              	.L54:
  75:.\main.c      ****     }else{
  76:.\main.c      ****         //UART_PutChar(0x00);
  77:.\main.c      ****         UART_PutChar('0');
 1220              		.loc 3 77 0
 1221 00de 4FF03000 		mov	r0, #48
 1222 00e2 FFF7FEFF 		bl	UART_PutChar
 1223              	.L52:
  78:.\main.c      ****     }
  79:.\main.c      ****     Crlf();
 1224              		.loc 3 79 0
 1225 00e6 FFF7FEFF 		bl	Crlf
  80:.\main.c      **** }
 1226              		.loc 3 80 0
 1227 00ea 07F12807 		add	r7, r7, #40
 1228 00ee BD46     		mov	sp, r7
 1229 00f0 80BD     		pop	{r7, pc}
 1230              		.cfi_endproc
 1231              	.LFE36:
 1232              		.size	UARTPrintFFTBeatInfo, .-UARTPrintFFTBeatInfo
 1233 00f2 00BF     		.section	.text.UARTPrintFFTBeatInfo8051,"ax",%progbits
 1234              		.align	2
 1235              		.global	UARTPrintFFTBeatInfo8051
 1236              		.thumb
 1237              		.thumb_func
 1238              		.type	UARTPrintFFTBeatInfo8051, %function
 1239              	UARTPrintFFTBeatInfo8051:
 1240              	.LFB37:
  81:.\main.c      **** 
  82:.\main.c      **** 
  83:.\main.c      **** void UARTPrintFFTBeatInfo8051(){
 1241              		.loc 3 83 0
 1242              		.cfi_startproc
 1243              		@ args = 0, pretend = 0, frame = 8
 1244              		@ frame_needed = 1, uses_anonymous_args = 0
 1245 0000 80B5     		push	{r7, lr}
 1246              	.LCFI22:
 1247              		.cfi_def_cfa_offset 8
ARM GAS  C:\DOCUME~1\student\LOCALS~1\Temp\ccTcJUb5.s 			page 27


 1248 0002 82B0     		sub	sp, sp, #8
 1249              	.LCFI23:
 1250              		.cfi_def_cfa_offset 16
 1251 0004 00AF     		add	r7, sp, #0
 1252              		.cfi_offset 14, -4
 1253              		.cfi_offset 7, -8
 1254              	.LCFI24:
 1255              		.cfi_def_cfa_register 7
  84:.\main.c      ****     //char output[32];  //C character output buffer
  85:.\main.c      ****     UART_PutChar(0xFF); // Indicates start of output
 1256              		.loc 3 85 0
 1257 0006 4FF0FF00 		mov	r0, #255
 1258 000a FFF7FEFF 		bl	UART_PutChar
  86:.\main.c      ****     int i;
  87:.\main.c      ****     uint8 output;
  88:.\main.c      ****     for(i=0;i<N_points/N_avg/2;i++){
 1259              		.loc 3 88 0
 1260 000e 4FF00003 		mov	r3, #0
 1261 0012 3B60     		str	r3, [r7, #0]
 1262 0014 15E0     		b	.L57
 1263              	.L59:
  89:.\main.c      ****         // Format output as 2 number hex digits (max value 255)
  90:.\main.c      ****         //sprintf(output, " %02x", (int)(mod_avg[i]));
  91:.\main.c      ****         //UART_PutString(output);
  92:.\main.c      ****         output = (int)(mod_avg[i]);
 1264              		.loc 3 92 0
 1265 0016 3A68     		ldr	r2, [r7, #0]
 1266 0018 40F20003 		movw	r3, #:lower16:mod_avg
 1267 001c C0F20003 		movt	r3, #:upper16:mod_avg
 1268 0020 53F82230 		ldr	r3, [r3, r2, lsl #2]
 1269 0024 FB71     		strb	r3, [r7, #7]
  93:.\main.c      ****         // We must ensure no outputs result in our indication char (FF)
  94:.\main.c      ****         if(output == 0xFF){
 1270              		.loc 3 94 0
 1271 0026 FB79     		ldrb	r3, [r7, #7]	@ zero_extendqisi2
 1272 0028 FF2B     		cmp	r3, #255
 1273 002a 02D1     		bne	.L58
  95:.\main.c      ****             output = 0xFE;
 1274              		.loc 3 95 0
 1275 002c 6FF00103 		mvn	r3, #1
 1276 0030 FB71     		strb	r3, [r7, #7]
 1277              	.L58:
  96:.\main.c      ****         }
  97:.\main.c      ****         UART_PutChar(output);
 1278              		.loc 3 97 0
 1279 0032 FB79     		ldrb	r3, [r7, #7]	@ zero_extendqisi2
 1280 0034 1846     		mov	r0, r3
 1281 0036 FFF7FEFF 		bl	UART_PutChar
 1282              		.loc 3 88 0
 1283 003a 3B68     		ldr	r3, [r7, #0]
 1284 003c 03F10103 		add	r3, r3, #1
 1285 0040 3B60     		str	r3, [r7, #0]
 1286              	.L57:
 1287 0042 3B68     		ldr	r3, [r7, #0]
 1288 0044 072B     		cmp	r3, #7
 1289 0046 E6DD     		ble	.L59
  98:.\main.c      ****     }
ARM GAS  C:\DOCUME~1\student\LOCALS~1\Temp\ccTcJUb5.s 			page 28


  99:.\main.c      ****     //UART_PutChar(' '); 
 100:.\main.c      ****     //UART_PutChar('B');  // Indicates start of output
 101:.\main.c      ****     // Beat1 is bit0, Beat2 is bit 1
 102:.\main.c      ****     if(beat1.isBeat && beat2.isBeat){
 1290              		.loc 3 102 0
 1291 0048 40F20003 		movw	r3, #:lower16:beat1
 1292 004c C0F20003 		movt	r3, #:upper16:beat1
 1293 0050 1B7B     		ldrb	r3, [r3, #12]	@ zero_extendqisi2
 1294 0052 002B     		cmp	r3, #0
 1295 0054 0BD0     		beq	.L60
 1296 0056 40F20003 		movw	r3, #:lower16:beat2
 1297 005a C0F20003 		movt	r3, #:upper16:beat2
 1298 005e 1B7B     		ldrb	r3, [r3, #12]	@ zero_extendqisi2
 1299 0060 002B     		cmp	r3, #0
 1300 0062 04D0     		beq	.L60
 103:.\main.c      ****         UART_PutChar(0x03);
 1301              		.loc 3 103 0
 1302 0064 4FF00300 		mov	r0, #3
 1303 0068 FFF7FEFF 		bl	UART_PutChar
 1304              		.loc 3 102 0
 1305 006c 2FE0     		b	.L64
 1306              	.L60:
 104:.\main.c      ****         //UART_PutChar('3');
 105:.\main.c      ****     }else if(beat1.isBeat && !beat2.isBeat){
 1307              		.loc 3 105 0
 1308 006e 40F20003 		movw	r3, #:lower16:beat1
 1309 0072 C0F20003 		movt	r3, #:upper16:beat1
 1310 0076 1B7B     		ldrb	r3, [r3, #12]	@ zero_extendqisi2
 1311 0078 002B     		cmp	r3, #0
 1312 007a 0ED0     		beq	.L62
 1313 007c 40F20003 		movw	r3, #:lower16:beat2
 1314 0080 C0F20003 		movt	r3, #:upper16:beat2
 1315 0084 1B7B     		ldrb	r3, [r3, #12]	@ zero_extendqisi2
 1316 0086 83F00103 		eor	r3, r3, #1
 1317 008a DBB2     		uxtb	r3, r3
 1318 008c 002B     		cmp	r3, #0
 1319 008e 04D0     		beq	.L62
 106:.\main.c      ****         UART_PutChar(0x01);
 1320              		.loc 3 106 0
 1321 0090 4FF00100 		mov	r0, #1
 1322 0094 FFF7FEFF 		bl	UART_PutChar
 1323              		.loc 3 105 0
 1324 0098 19E0     		b	.L64
 1325              	.L62:
 107:.\main.c      ****         //UART_PutChar('1');
 108:.\main.c      ****     }else if(!beat1.isBeat && beat2.isBeat){
 1326              		.loc 3 108 0
 1327 009a 40F20003 		movw	r3, #:lower16:beat1
 1328 009e C0F20003 		movt	r3, #:upper16:beat1
 1329 00a2 1B7B     		ldrb	r3, [r3, #12]	@ zero_extendqisi2
 1330 00a4 83F00103 		eor	r3, r3, #1
 1331 00a8 DBB2     		uxtb	r3, r3
 1332 00aa 002B     		cmp	r3, #0
 1333 00ac 0BD0     		beq	.L63
 1334 00ae 40F20003 		movw	r3, #:lower16:beat2
 1335 00b2 C0F20003 		movt	r3, #:upper16:beat2
 1336 00b6 1B7B     		ldrb	r3, [r3, #12]	@ zero_extendqisi2
ARM GAS  C:\DOCUME~1\student\LOCALS~1\Temp\ccTcJUb5.s 			page 29


 1337 00b8 002B     		cmp	r3, #0
 1338 00ba 04D0     		beq	.L63
 109:.\main.c      ****         UART_PutChar(0x02);
 1339              		.loc 3 109 0
 1340 00bc 4FF00200 		mov	r0, #2
 1341 00c0 FFF7FEFF 		bl	UART_PutChar
 1342              		.loc 3 108 0
 1343 00c4 03E0     		b	.L64
 1344              	.L63:
 110:.\main.c      ****         //UART_PutChar('2');
 111:.\main.c      ****     }else{
 112:.\main.c      ****         UART_PutChar(0x00);
 1345              		.loc 3 112 0
 1346 00c6 4FF00000 		mov	r0, #0
 1347 00ca FFF7FEFF 		bl	UART_PutChar
 1348              	.L64:
 113:.\main.c      ****         //UART_PutChar('0');
 114:.\main.c      ****     }
 115:.\main.c      ****     //Crlf();
 116:.\main.c      **** }
 1349              		.loc 3 116 0
 1350 00ce 07F10807 		add	r7, r7, #8
 1351 00d2 BD46     		mov	sp, r7
 1352 00d4 80BD     		pop	{r7, pc}
 1353              		.cfi_endproc
 1354              	.LFE37:
 1355              		.size	UARTPrintFFTBeatInfo8051, .-UARTPrintFFTBeatInfo8051
 1356 00d6 00BF     		.section	.text.main,"ax",%progbits
 1357              		.align	2
 1358              		.global	main
 1359              		.thumb
 1360              		.thumb_func
 1361              		.type	main, %function
 1362              	main:
 1363              	.LFB38:
 117:.\main.c      **** 
 118:.\main.c      **** 
 119:.\main.c      **** void main(){	
 1364              		.loc 3 119 0
 1365              		.cfi_startproc
 1366              		@ args = 0, pretend = 0, frame = 0
 1367              		@ frame_needed = 1, uses_anonymous_args = 0
 1368 0000 80B5     		push	{r7, lr}
 1369              	.LCFI25:
 1370              		.cfi_def_cfa_offset 8
 1371 0002 00AF     		add	r7, sp, #0
 1372              		.cfi_offset 14, -4
 1373              		.cfi_offset 7, -8
 1374              	.LCFI26:
 1375              		.cfi_def_cfa_register 7
 120:.\main.c      ****     Init();                             // Initialize the PSoC
 1376              		.loc 3 120 0
 1377 0004 FFF7FEFF 		bl	Init
 1378              	.L66:
 121:.\main.c      **** 
 122:.\main.c      **** /*
 123:.\main.c      ****     char output[32];
ARM GAS  C:\DOCUME~1\student\LOCALS~1\Temp\ccTcJUb5.s 			page 30


 124:.\main.c      **** 
 125:.\main.c      ****     while(1){// Main loop 
 126:.\main.c      ****         if ( ADC_SAR_1_IsEndConversion(1) ){  
 127:.\main.c      ****             //adcResult =ADC_DelSig_1_GetResult16() * ADC_SCALE;       
 128:.\main.c      ****             adcResult =ADC_SAR_1_GetResult16() * ADC_SCALE;       
 129:.\main.c      ****         }   
 130:.\main.c      ****         
 131:.\main.c      ****         // Format output as 2 number hex digits (max value 255)
 132:.\main.c      ****         sprintf(output, "%02x ", (int)(adcResult));
 133:.\main.c      ****         UART_PutString(output);
 134:.\main.c      ****     }
 135:.\main.c      ****     */
 136:.\main.c      **** 
 137:.\main.c      ****     while(1){
 138:.\main.c      ****         // Loop endlessly
 139:.\main.c      ****     }
 1379              		.loc 3 139 0
 1380 0008 FEE7     		b	.L66
 1381              		.cfi_endproc
 1382              	.LFE38:
 1383              		.size	main, .-main
 1384 000a 00BF     		.section	.text.ProcessBeats,"ax",%progbits
 1385              		.align	2
 1386              		.global	ProcessBeats
 1387              		.thumb
 1388              		.thumb_func
 1389              		.type	ProcessBeats, %function
 1390              	ProcessBeats:
 1391              	.LFB39:
 140:.\main.c      **** }
 141:.\main.c      **** 
 142:.\main.c      **** 
 143:.\main.c      **** void ProcessBeats(){
 1392              		.loc 3 143 0
 1393              		.cfi_startproc
 1394              		@ args = 0, pretend = 0, frame = 8
 1395              		@ frame_needed = 1, uses_anonymous_args = 0
 1396 0000 80B5     		push	{r7, lr}
 1397              	.LCFI27:
 1398              		.cfi_def_cfa_offset 8
 1399 0002 82B0     		sub	sp, sp, #8
 1400              	.LCFI28:
 1401              		.cfi_def_cfa_offset 16
 1402 0004 00AF     		add	r7, sp, #0
 1403              		.cfi_offset 14, -4
 1404              		.cfi_offset 7, -8
 1405              	.LCFI29:
 1406              		.cfi_def_cfa_register 7
 144:.\main.c      ****     long diff;
 145:.\main.c      ****     
 146:.\main.c      ****     // Process Beat 1
 147:.\main.c      ****     diff = (getCurrentTimeMills() - beat1.lastTimeMills); 
 1407              		.loc 3 147 0
 1408 0006 FFF7FEFF 		bl	getCurrentTimeMills
 1409 000a 0246     		mov	r2, r0
 1410 000c 40F20003 		movw	r3, #:lower16:beat1
 1411 0010 C0F20003 		movt	r3, #:upper16:beat1
ARM GAS  C:\DOCUME~1\student\LOCALS~1\Temp\ccTcJUb5.s 			page 31


 1412 0014 1B68     		ldr	r3, [r3, #0]
 1413 0016 C3EB0203 		rsb	r3, r3, r2
 1414 001a 7B60     		str	r3, [r7, #4]
 148:.\main.c      ****     if(diff >BEAT_TIMEOUT_MILLS){
 1415              		.loc 3 148 0
 1416 001c 40F20003 		movw	r3, #:lower16:BEAT_TIMEOUT_MILLS
 1417 0020 C0F20003 		movt	r3, #:upper16:BEAT_TIMEOUT_MILLS
 1418 0024 1B68     		ldr	r3, [r3, #0]
 1419 0026 7A68     		ldr	r2, [r7, #4]
 1420 0028 9A42     		cmp	r2, r3
 1421 002a 2ADD     		ble	.L69
 149:.\main.c      ****         if(mod_avg[beat1.frequency] > beat1.threshold){
 1422              		.loc 3 149 0
 1423 002c 40F20003 		movw	r3, #:lower16:beat1
 1424 0030 C0F20003 		movt	r3, #:upper16:beat1
 1425 0034 5A68     		ldr	r2, [r3, #4]
 1426 0036 40F20003 		movw	r3, #:lower16:mod_avg
 1427 003a C0F20003 		movt	r3, #:upper16:mod_avg
 1428 003e 53F82230 		ldr	r3, [r3, r2, lsl #2]
 1429 0042 1A46     		mov	r2, r3
 1430 0044 40F20003 		movw	r3, #:lower16:beat1
 1431 0048 C0F20003 		movt	r3, #:upper16:beat1
 1432 004c 9B68     		ldr	r3, [r3, #8]
 1433 004e 9A42     		cmp	r2, r3
 1434 0050 0FD9     		bls	.L70
 150:.\main.c      ****             beat1.isBeat = true;
 1435              		.loc 3 150 0
 1436 0052 40F20003 		movw	r3, #:lower16:beat1
 1437 0056 C0F20003 		movt	r3, #:upper16:beat1
 1438 005a 4FF00102 		mov	r2, #1
 1439 005e 1A73     		strb	r2, [r3, #12]
 151:.\main.c      ****             beat1.lastTimeMills = getCurrentTimeMills();
 1440              		.loc 3 151 0
 1441 0060 FFF7FEFF 		bl	getCurrentTimeMills
 1442 0064 0246     		mov	r2, r0
 1443 0066 40F20003 		movw	r3, #:lower16:beat1
 1444 006a C0F20003 		movt	r3, #:upper16:beat1
 1445 006e 1A60     		str	r2, [r3, #0]
 152:.\main.c      ****         }else{
 153:.\main.c      ****             beat1.isBeat = false;
 1446              		.loc 3 153 0
 1447 0070 0EE0     		b	.L72
 1448              	.L70:
 1449 0072 40F20003 		movw	r3, #:lower16:beat1
 1450 0076 C0F20003 		movt	r3, #:upper16:beat1
 1451 007a 4FF00002 		mov	r2, #0
 1452 007e 1A73     		strb	r2, [r3, #12]
 1453 0080 06E0     		b	.L72
 1454              	.L69:
 154:.\main.c      ****         }
 155:.\main.c      ****     }else{
 156:.\main.c      ****         beat1.isBeat = false;
 1455              		.loc 3 156 0
 1456 0082 40F20003 		movw	r3, #:lower16:beat1
 1457 0086 C0F20003 		movt	r3, #:upper16:beat1
 1458 008a 4FF00002 		mov	r2, #0
 1459 008e 1A73     		strb	r2, [r3, #12]
ARM GAS  C:\DOCUME~1\student\LOCALS~1\Temp\ccTcJUb5.s 			page 32


 1460              	.L72:
 157:.\main.c      ****     }
 158:.\main.c      ****     
 159:.\main.c      ****     // Process Beat 2
 160:.\main.c      ****     diff = (getCurrentTimeMills() - beat2.lastTimeMills); 
 1461              		.loc 3 160 0
 1462 0090 FFF7FEFF 		bl	getCurrentTimeMills
 1463 0094 0246     		mov	r2, r0
 1464 0096 40F20003 		movw	r3, #:lower16:beat2
 1465 009a C0F20003 		movt	r3, #:upper16:beat2
 1466 009e 1B68     		ldr	r3, [r3, #0]
 1467 00a0 C3EB0203 		rsb	r3, r3, r2
 1468 00a4 7B60     		str	r3, [r7, #4]
 161:.\main.c      ****     if(diff >BEAT_TIMEOUT_MILLS){
 1469              		.loc 3 161 0
 1470 00a6 40F20003 		movw	r3, #:lower16:BEAT_TIMEOUT_MILLS
 1471 00aa C0F20003 		movt	r3, #:upper16:BEAT_TIMEOUT_MILLS
 1472 00ae 1B68     		ldr	r3, [r3, #0]
 1473 00b0 7A68     		ldr	r2, [r7, #4]
 1474 00b2 9A42     		cmp	r2, r3
 1475 00b4 2ADD     		ble	.L73
 162:.\main.c      ****         if(mod_avg[beat2.frequency] > beat2.threshold){
 1476              		.loc 3 162 0
 1477 00b6 40F20003 		movw	r3, #:lower16:beat2
 1478 00ba C0F20003 		movt	r3, #:upper16:beat2
 1479 00be 5A68     		ldr	r2, [r3, #4]
 1480 00c0 40F20003 		movw	r3, #:lower16:mod_avg
 1481 00c4 C0F20003 		movt	r3, #:upper16:mod_avg
 1482 00c8 53F82230 		ldr	r3, [r3, r2, lsl #2]
 1483 00cc 1A46     		mov	r2, r3
 1484 00ce 40F20003 		movw	r3, #:lower16:beat2
 1485 00d2 C0F20003 		movt	r3, #:upper16:beat2
 1486 00d6 9B68     		ldr	r3, [r3, #8]
 1487 00d8 9A42     		cmp	r2, r3
 1488 00da 0FD9     		bls	.L74
 163:.\main.c      ****             beat2.isBeat = true;
 1489              		.loc 3 163 0
 1490 00dc 40F20003 		movw	r3, #:lower16:beat2
 1491 00e0 C0F20003 		movt	r3, #:upper16:beat2
 1492 00e4 4FF00102 		mov	r2, #1
 1493 00e8 1A73     		strb	r2, [r3, #12]
 164:.\main.c      ****             beat2.lastTimeMills = getCurrentTimeMills();
 1494              		.loc 3 164 0
 1495 00ea FFF7FEFF 		bl	getCurrentTimeMills
 1496 00ee 0246     		mov	r2, r0
 1497 00f0 40F20003 		movw	r3, #:lower16:beat2
 1498 00f4 C0F20003 		movt	r3, #:upper16:beat2
 1499 00f8 1A60     		str	r2, [r3, #0]
 165:.\main.c      ****         }else{
 166:.\main.c      ****             beat2.isBeat = false;
 1500              		.loc 3 166 0
 1501 00fa 0EE0     		b	.L77
 1502              	.L74:
 1503 00fc 40F20003 		movw	r3, #:lower16:beat2
 1504 0100 C0F20003 		movt	r3, #:upper16:beat2
 1505 0104 4FF00002 		mov	r2, #0
 1506 0108 1A73     		strb	r2, [r3, #12]
ARM GAS  C:\DOCUME~1\student\LOCALS~1\Temp\ccTcJUb5.s 			page 33


 1507 010a 06E0     		b	.L77
 1508              	.L73:
 167:.\main.c      ****         }
 168:.\main.c      ****     }else{
 169:.\main.c      ****         beat2.isBeat = false;
 1509              		.loc 3 169 0
 1510 010c 40F20003 		movw	r3, #:lower16:beat2
 1511 0110 C0F20003 		movt	r3, #:upper16:beat2
 1512 0114 4FF00002 		mov	r2, #0
 1513 0118 1A73     		strb	r2, [r3, #12]
 1514              	.L77:
 170:.\main.c      ****     }
 171:.\main.c      **** }
 1515              		.loc 3 171 0
 1516 011a 07F10807 		add	r7, r7, #8
 1517 011e BD46     		mov	sp, r7
 1518 0120 80BD     		pop	{r7, pc}
 1519              		.cfi_endproc
 1520              	.LFE39:
 1521              		.size	ProcessBeats, .-ProcessBeats
 1522 0122 00BF     		.section	.text.ProcessFFT,"ax",%progbits
 1523              		.align	2
 1524              		.global	ProcessFFT
 1525              		.thumb
 1526              		.thumb_func
 1527              		.type	ProcessFFT, %function
 1528              	ProcessFFT:
 1529              	.LFB40:
 172:.\main.c      **** 
 173:.\main.c      **** 
 174:.\main.c      **** void ProcessFFT(){
 1530              		.loc 3 174 0
 1531              		.cfi_startproc
 1532              		@ args = 0, pretend = 0, frame = 0
 1533              		@ frame_needed = 1, uses_anonymous_args = 0
 1534 0000 80B5     		push	{r7, lr}
 1535              	.LCFI30:
 1536              		.cfi_def_cfa_offset 8
 1537 0002 00AF     		add	r7, sp, #0
 1538              		.cfi_offset 14, -4
 1539              		.cfi_offset 7, -8
 1540              	.LCFI31:
 1541              		.cfi_def_cfa_register 7
 175:.\main.c      ****     // Calculate Beat status
 176:.\main.c      ****     ProcessBeats();
 1542              		.loc 3 176 0
 1543 0004 FFF7FEFF 		bl	ProcessBeats
 177:.\main.c      ****     // Send info over serial
 178:.\main.c      ****     UARTPrintFFTBeatInfo8051();
 1544              		.loc 3 178 0
 1545 0008 FFF7FEFF 		bl	UARTPrintFFTBeatInfo8051
 179:.\main.c      ****     return;
 180:.\main.c      **** }
 1546              		.loc 3 180 0
 1547 000c 80BD     		pop	{r7, pc}
 1548              		.cfi_endproc
 1549              	.LFE40:
ARM GAS  C:\DOCUME~1\student\LOCALS~1\Temp\ccTcJUb5.s 			page 34


 1550              		.size	ProcessFFT, .-ProcessFFT
 1551 000e 00BF     		.section	.text.CalculateFFT,"ax",%progbits
 1552              		.align	2
 1553              		.global	CalculateFFT
 1554              		.thumb
 1555              		.thumb_func
 1556              		.type	CalculateFFT, %function
 1557              	CalculateFFT:
 1558              	.LFB41:
 181:.\main.c      **** 
 182:.\main.c      **** 
 183:.\main.c      **** void CalculateFFT(){
 1559              		.loc 3 183 0
 1560              		.cfi_startproc
 1561              		@ args = 0, pretend = 0, frame = 0
 1562              		@ frame_needed = 1, uses_anonymous_args = 0
 1563 0000 98B5     		push	{r3, r4, r7, lr}
 1564              	.LCFI32:
 1565              		.cfi_def_cfa_offset 16
 1566 0002 00AF     		add	r7, sp, #0
 1567              		.cfi_offset 14, -4
 1568              		.cfi_offset 7, -8
 1569              		.cfi_offset 4, -12
 1570              		.cfi_offset 3, -16
 1571              	.LCFI33:
 1572              		.cfi_def_cfa_register 7
 184:.\main.c      ****     if (ADC_SAR_1_IsEndConversion(1) ){  
 1573              		.loc 3 184 0
 1574 0004 4FF00100 		mov	r0, #1
 1575 0008 FFF7FEFF 		bl	ADC_SAR_1_IsEndConversion
 1576 000c 0346     		mov	r3, r0
 1577 000e 002B     		cmp	r3, #0
 1578 0010 25D0     		beq	.L81
 185:.\main.c      ****         //data_re[i]=ADC_DelSig_1_GetResult16() * ADC_GAIN;  
 186:.\main.c      ****         data_re[global_i] =ADC_SAR_1_GetResult16() * ADC_GAIN;       
 1579              		.loc 3 186 0
 1580 0012 40F20003 		movw	r3, #:lower16:global_i
 1581 0016 C0F20003 		movt	r3, #:upper16:global_i
 1582 001a 1C68     		ldr	r4, [r3, #0]
 1583 001c FFF7FEFF 		bl	ADC_SAR_1_GetResult16
 1584 0020 0346     		mov	r3, r0
 1585 0022 9BB2     		uxth	r3, r3
 1586 0024 1BB2     		sxth	r3, r3
 1587 0026 4FF06402 		mov	r2, #100
 1588 002a 02FB03F3 		mul	r3, r2, r3
 1589 002e 1846     		mov	r0, r3
 1590 0030 FFF7FEFF 		bl	__aeabi_i2d
 1591 0034 40F20003 		movw	r3, #:lower16:data_re
 1592 0038 C0F20003 		movt	r3, #:upper16:data_re
 1593 003c 4FEAC402 		lsl	r2, r4, #3
 1594 0040 1344     		add	r3, r2, r3
 1595 0042 C3E90001 		strd	r0, [r3]
 187:.\main.c      **** 
 188:.\main.c      ****         global_i++;
 1596              		.loc 3 188 0
 1597 0046 40F20003 		movw	r3, #:lower16:global_i
 1598 004a C0F20003 		movt	r3, #:upper16:global_i
ARM GAS  C:\DOCUME~1\student\LOCALS~1\Temp\ccTcJUb5.s 			page 35


 1599 004e 1B68     		ldr	r3, [r3, #0]
 1600 0050 03F10102 		add	r2, r3, #1
 1601 0054 40F20003 		movw	r3, #:lower16:global_i
 1602 0058 C0F20003 		movt	r3, #:upper16:global_i
 1603 005c 1A60     		str	r2, [r3, #0]
 1604              	.L81:
 189:.\main.c      ****     } 
 190:.\main.c      **** 
 191:.\main.c      ****     if(global_i==N_points){
 1605              		.loc 3 191 0
 1606 005e 40F20003 		movw	r3, #:lower16:global_i
 1607 0062 C0F20003 		movt	r3, #:upper16:global_i
 1608 0066 1B68     		ldr	r3, [r3, #0]
 1609 0068 802B     		cmp	r3, #128
 1610 006a 1AD1     		bne	.L83
 192:.\main.c      ****     	FFT(1,exponent,data_re,data_imm );    // Run FFT
 1611              		.loc 3 192 0
 1612 006c 4FF00100 		mov	r0, #1
 1613 0070 4FF00701 		mov	r1, #7
 1614 0074 40F20002 		movw	r2, #:lower16:data_re
 1615 0078 C0F20002 		movt	r2, #:upper16:data_re
 1616 007c 40F20003 		movw	r3, #:lower16:data_imm
 1617 0080 C0F20003 		movt	r3, #:upper16:data_imm
 1618 0084 FFF7FEFF 		bl	FFT
 193:.\main.c      ****         FFTAVG();   // Calculate AVGs
 1619              		.loc 3 193 0
 1620 0088 FFF7FEFF 		bl	FFTAVG
 194:.\main.c      ****         
 195:.\main.c      ****         ProcessFFT();  // Process the FFT result based on the stae
 1621              		.loc 3 195 0
 1622 008c FFF7FEFF 		bl	ProcessFFT
 196:.\main.c      **** 
 197:.\main.c      ****         ResetFFT();  // Reset FFT after processing 
 1623              		.loc 3 197 0
 1624 0090 FFF7FEFF 		bl	ResetFFT
 198:.\main.c      ****         global_i=0;
 1625              		.loc 3 198 0
 1626 0094 40F20003 		movw	r3, #:lower16:global_i
 1627 0098 C0F20003 		movt	r3, #:upper16:global_i
 1628 009c 4FF00002 		mov	r2, #0
 1629 00a0 1A60     		str	r2, [r3, #0]
 1630              	.L83:
 199:.\main.c      ****     }// end for i==N
 200:.\main.c      **** }
 1631              		.loc 3 200 0
 1632 00a2 98BD     		pop	{r3, r4, r7, pc}
 1633              		.cfi_endproc
 1634              	.LFE41:
 1635              		.size	CalculateFFT, .-CalculateFFT
 1636              		.section	.text.ProcessUARTRX,"ax",%progbits
 1637              		.align	2
 1638              		.global	ProcessUARTRX
 1639              		.thumb
 1640              		.thumb_func
 1641              		.type	ProcessUARTRX, %function
 1642              	ProcessUARTRX:
 1643              	.LFB42:
ARM GAS  C:\DOCUME~1\student\LOCALS~1\Temp\ccTcJUb5.s 			page 36


 201:.\main.c      **** 
 202:.\main.c      **** 
 203:.\main.c      **** void ProcessUARTRX(uint8 input){
 1644              		.loc 3 203 0
 1645              		.cfi_startproc
 1646              		@ args = 0, pretend = 0, frame = 8
 1647              		@ frame_needed = 1, uses_anonymous_args = 0
 1648              		@ link register save eliminated.
 1649 0000 80B4     		push	{r7}
 1650              	.LCFI34:
 1651              		.cfi_def_cfa_offset 4
 1652 0002 83B0     		sub	sp, sp, #12
 1653              	.LCFI35:
 1654              		.cfi_def_cfa_offset 16
 1655 0004 00AF     		add	r7, sp, #0
 1656              		.cfi_offset 7, -4
 1657              	.LCFI36:
 1658              		.cfi_def_cfa_register 7
 1659 0006 0346     		mov	r3, r0
 1660 0008 FB71     		strb	r3, [r7, #7]
 204:.\main.c      ****     switch(input){
 205:.\main.c      ****         case 'F':
 206:.\main.c      ****             
 207:.\main.c      ****             break;
 208:.\main.c      ****         case 'B':
 209:.\main.c      ****             break;
 210:.\main.c      ****     }
 211:.\main.c      **** }
 1661              		.loc 3 211 0
 1662 000a 07F10C07 		add	r7, r7, #12
 1663 000e BD46     		mov	sp, r7
 1664 0010 80BC     		pop	{r7}
 1665 0012 7047     		bx	lr
 1666              		.cfi_endproc
 1667              	.LFE42:
 1668              		.size	ProcessUARTRX, .-ProcessUARTRX
 1669              		.section	.text.InitBeatStates,"ax",%progbits
 1670              		.align	2
 1671              		.global	InitBeatStates
 1672              		.thumb
 1673              		.thumb_func
 1674              		.type	InitBeatStates, %function
 1675              	InitBeatStates:
 1676              	.LFB43:
 212:.\main.c      **** 
 213:.\main.c      **** void InitBeatStates(){
 1677              		.loc 3 213 0
 1678              		.cfi_startproc
 1679              		@ args = 0, pretend = 0, frame = 0
 1680              		@ frame_needed = 1, uses_anonymous_args = 0
 1681              		@ link register save eliminated.
 1682 0000 80B4     		push	{r7}
 1683              	.LCFI37:
 1684              		.cfi_def_cfa_offset 4
 1685 0002 00AF     		add	r7, sp, #0
 1686              		.cfi_offset 7, -4
 1687              	.LCFI38:
ARM GAS  C:\DOCUME~1\student\LOCALS~1\Temp\ccTcJUb5.s 			page 37


 1688              		.cfi_def_cfa_register 7
 214:.\main.c      ****     // Init beat1
 215:.\main.c      ****     beat1.frequency = 0;
 1689              		.loc 3 215 0
 1690 0004 40F20003 		movw	r3, #:lower16:beat1
 1691 0008 C0F20003 		movt	r3, #:upper16:beat1
 1692 000c 4FF00002 		mov	r2, #0
 1693 0010 5A60     		str	r2, [r3, #4]
 216:.\main.c      ****     beat1.threshold = 128;
 1694              		.loc 3 216 0
 1695 0012 40F20003 		movw	r3, #:lower16:beat1
 1696 0016 C0F20003 		movt	r3, #:upper16:beat1
 1697 001a 4FF08002 		mov	r2, #128
 1698 001e 9A60     		str	r2, [r3, #8]
 217:.\main.c      ****     beat1.lastTimeMills = 0; // Get the current time. 
 1699              		.loc 3 217 0
 1700 0020 40F20003 		movw	r3, #:lower16:beat1
 1701 0024 C0F20003 		movt	r3, #:upper16:beat1
 1702 0028 4FF00002 		mov	r2, #0
 1703 002c 1A60     		str	r2, [r3, #0]
 218:.\main.c      ****     beat1.isBeat = false;
 1704              		.loc 3 218 0
 1705 002e 40F20003 		movw	r3, #:lower16:beat1
 1706 0032 C0F20003 		movt	r3, #:upper16:beat1
 1707 0036 4FF00002 		mov	r2, #0
 1708 003a 1A73     		strb	r2, [r3, #12]
 219:.\main.c      ****     // Init beat2
 220:.\main.c      ****     beat2.frequency = 4;
 1709              		.loc 3 220 0
 1710 003c 40F20003 		movw	r3, #:lower16:beat2
 1711 0040 C0F20003 		movt	r3, #:upper16:beat2
 1712 0044 4FF00402 		mov	r2, #4
 1713 0048 5A60     		str	r2, [r3, #4]
 221:.\main.c      ****     beat2.threshold = 80;
 1714              		.loc 3 221 0
 1715 004a 40F20003 		movw	r3, #:lower16:beat2
 1716 004e C0F20003 		movt	r3, #:upper16:beat2
 1717 0052 4FF05002 		mov	r2, #80
 1718 0056 9A60     		str	r2, [r3, #8]
 222:.\main.c      ****     beat2.lastTimeMills = 0; // Get the current time.
 1719              		.loc 3 222 0
 1720 0058 40F20003 		movw	r3, #:lower16:beat2
 1721 005c C0F20003 		movt	r3, #:upper16:beat2
 1722 0060 4FF00002 		mov	r2, #0
 1723 0064 1A60     		str	r2, [r3, #0]
 223:.\main.c      ****     beat2.isBeat = false;
 1724              		.loc 3 223 0
 1725 0066 40F20003 		movw	r3, #:lower16:beat2
 1726 006a C0F20003 		movt	r3, #:upper16:beat2
 1727 006e 4FF00002 		mov	r2, #0
 1728 0072 1A73     		strb	r2, [r3, #12]
 224:.\main.c      **** }
 1729              		.loc 3 224 0
 1730 0074 BD46     		mov	sp, r7
 1731 0076 80BC     		pop	{r7}
 1732 0078 7047     		bx	lr
 1733              		.cfi_endproc
ARM GAS  C:\DOCUME~1\student\LOCALS~1\Temp\ccTcJUb5.s 			page 38


 1734              	.LFE43:
 1735              		.size	InitBeatStates, .-InitBeatStates
 1736 007a 00BF     		.section	.text.Init,"ax",%progbits
 1737              		.align	2
 1738              		.global	Init
 1739              		.thumb
 1740              		.thumb_func
 1741              		.type	Init, %function
 1742              	Init:
 1743              	.LFB44:
 225:.\main.c      **** 
 226:.\main.c      **** 
 227:.\main.c      **** void Init() {
 1744              		.loc 3 227 0
 1745              		.cfi_startproc
 1746              		@ args = 0, pretend = 0, frame = 0
 1747              		@ frame_needed = 1, uses_anonymous_args = 0
 1748 0000 80B5     		push	{r7, lr}
 1749              	.LCFI39:
 1750              		.cfi_def_cfa_offset 8
 1751 0002 00AF     		add	r7, sp, #0
 1752              		.cfi_offset 14, -4
 1753              		.cfi_offset 7, -8
 1754              	.LCFI40:
 1755              		.cfi_def_cfa_register 7
 228:.\main.c      ****     PGA_1_Start();
 1756              		.loc 3 228 0
 1757 0004 FFF7FEFF 		bl	PGA_1_Start
 229:.\main.c      ****     VDAC8_1_Start();
 1758              		.loc 3 229 0
 1759 0008 FFF7FEFF 		bl	VDAC8_1_Start
 230:.\main.c      ****     
 231:.\main.c      **** 	LCD_Start();					    // initialize lcd
 1760              		.loc 3 231 0
 1761 000c FFF7FEFF 		bl	LCD_Start
 232:.\main.c      **** 	LCD_ClearDisplay();
 1762              		.loc 3 232 0
 1763 0010 4FF00100 		mov	r0, #1
 1764 0014 FFF7FEFF 		bl	LCD_WriteControl
 233:.\main.c      ****     
 234:.\main.c      ****     CyGlobalIntEnable;  // Global interrupts enabled
 1765              		.loc 3 234 0
 1766              	@ 234 ".\main.c" 1
 1767 0018 62B6     		CPSIE   i
 1768              	@ 0 "" 2
 235:.\main.c      ****     rx_int_Start();                     // start RX interrupt--look at this file under "Generated_S
 1769              		.loc 3 235 0
 1770              		.thumb
 1771 001a FFF7FEFF 		bl	rx_int_Start
 236:.\main.c      ****                                         // for code that writes received bytes to LCD.
 237:.\main.c      ****     
 238:.\main.c      ****     UART_Start();                       // initialize UART
 1772              		.loc 3 238 0
 1773 001e FFF7FEFF 		bl	UART_Start
 239:.\main.c      ****     UART_ClearRxBuffer();
 1774              		.loc 3 239 0
 1775 0022 FFF7FEFF 		bl	UART_ClearRxBuffer
ARM GAS  C:\DOCUME~1\student\LOCALS~1\Temp\ccTcJUb5.s 			page 39


 240:.\main.c      ****     
 241:.\main.c      ****     ADC_SAR_1_Start();
 1776              		.loc 3 241 0
 1777 0026 FFF7FEFF 		bl	ADC_SAR_1_Start
 242:.\main.c      ****     ADC_SAR_1_StartConvert();
 1778              		.loc 3 242 0
 1779 002a FFF7FEFF 		bl	ADC_SAR_1_StartConvert
 243:.\main.c      **** 
 244:.\main.c      ****     // FFT Interrrupt enable
 245:.\main.c      ****     FFT_ISR_Start();    
 1780              		.loc 3 245 0
 1781 002e FFF7FEFF 		bl	FFT_ISR_Start
 246:.\main.c      ****     FFT_ISR_Enable();
 1782              		.loc 3 246 0
 1783 0032 FFF7FEFF 		bl	FFT_ISR_Enable
 247:.\main.c      ****     
 248:.\main.c      ****     // Clock Interrupt enable
 249:.\main.c      ****     Clock_ISR_Start();    
 1784              		.loc 3 249 0
 1785 0036 FFF7FEFF 		bl	Clock_ISR_Start
 250:.\main.c      ****     Clock_ISR_Enable();
 1786              		.loc 3 250 0
 1787 003a FFF7FEFF 		bl	Clock_ISR_Enable
 251:.\main.c      **** 
 252:.\main.c      ****     // Initialize the beat states
 253:.\main.c      ****     InitBeatStates();
 1788              		.loc 3 253 0
 1789 003e FFF7FEFF 		bl	InitBeatStates
 254:.\main.c      **** }
 1790              		.loc 3 254 0
 1791 0042 80BD     		pop	{r7, pc}
 1792              		.cfi_endproc
 1793              	.LFE44:
 1794              		.size	Init, .-Init
 1795              		.section	.text.Crlf,"ax",%progbits
 1796              		.align	2
 1797              		.global	Crlf
 1798              		.thumb
 1799              		.thumb_func
 1800              		.type	Crlf, %function
 1801              	Crlf:
 1802              	.LFB45:
 255:.\main.c      **** 
 256:.\main.c      **** 
 257:.\main.c      **** void Crlf(){   
 1803              		.loc 3 257 0
 1804              		.cfi_startproc
 1805              		@ args = 0, pretend = 0, frame = 0
 1806              		@ frame_needed = 1, uses_anonymous_args = 0
 1807 0000 80B5     		push	{r7, lr}
 1808              	.LCFI41:
 1809              		.cfi_def_cfa_offset 8
 1810 0002 00AF     		add	r7, sp, #0
 1811              		.cfi_offset 14, -4
 1812              		.cfi_offset 7, -8
 1813              	.LCFI42:
 1814              		.cfi_def_cfa_register 7
ARM GAS  C:\DOCUME~1\student\LOCALS~1\Temp\ccTcJUb5.s 			page 40


 258:.\main.c      ****     UART_PutChar(10);
 1815              		.loc 3 258 0
 1816 0004 4FF00A00 		mov	r0, #10
 1817 0008 FFF7FEFF 		bl	UART_PutChar
 259:.\main.c      ****     UART_PutChar(13);
 1818              		.loc 3 259 0
 1819 000c 4FF00D00 		mov	r0, #13
 1820 0010 FFF7FEFF 		bl	UART_PutChar
 260:.\main.c      **** }
 1821              		.loc 3 260 0
 1822 0014 80BD     		pop	{r7, pc}
 1823              		.cfi_endproc
 1824              	.LFE45:
 1825              		.size	Crlf, .-Crlf
 1826 0016 00BF     		.text
 1827              	.Letext0:
 1828              		.section	.debug_loc,"",%progbits
 1829              	.Ldebug_loc0:
 1830              	.LLST0:
 1831 0000 00000000 		.4byte	.LFB29
 1832 0004 02000000 		.4byte	.LCFI0
 1833 0008 0100     		.2byte	0x1
 1834 000a 5D       		.byte	0x5d
 1835 000b 02000000 		.4byte	.LCFI0
 1836 000f 04000000 		.4byte	.LCFI1
 1837 0013 0200     		.2byte	0x2
 1838 0015 7D       		.byte	0x7d
 1839 0016 14       		.sleb128 20
 1840 0017 04000000 		.4byte	.LCFI1
 1841 001b 06000000 		.4byte	.LCFI2
 1842 001f 0300     		.2byte	0x3
 1843 0021 7D       		.byte	0x7d
 1844 0022 9801     		.sleb128 152
 1845 0024 06000000 		.4byte	.LCFI2
 1846 0028 56050000 		.4byte	.LFE29
 1847 002c 0300     		.2byte	0x3
 1848 002e 77       		.byte	0x77
 1849 002f 9801     		.sleb128 152
 1850 0031 00000000 		.4byte	0x0
 1851 0035 00000000 		.4byte	0x0
 1852              	.LLST1:
 1853 0039 00000000 		.4byte	.LFB30
 1854 003d 02000000 		.4byte	.LCFI3
 1855 0041 0100     		.2byte	0x1
 1856 0043 5D       		.byte	0x5d
 1857 0044 02000000 		.4byte	.LCFI3
 1858 0048 04000000 		.4byte	.LCFI4
 1859 004c 0200     		.2byte	0x2
 1860 004e 7D       		.byte	0x7d
 1861 004f 04       		.sleb128 4
 1862 0050 04000000 		.4byte	.LCFI4
 1863 0054 06000000 		.4byte	.LCFI5
 1864 0058 0200     		.2byte	0x2
 1865 005a 7D       		.byte	0x7d
 1866 005b 10       		.sleb128 16
 1867 005c 06000000 		.4byte	.LCFI5
 1868 0060 80000000 		.4byte	.LFE30
ARM GAS  C:\DOCUME~1\student\LOCALS~1\Temp\ccTcJUb5.s 			page 41


 1869 0064 0200     		.2byte	0x2
 1870 0066 77       		.byte	0x77
 1871 0067 10       		.sleb128 16
 1872 0068 00000000 		.4byte	0x0
 1873 006c 00000000 		.4byte	0x0
 1874              	.LLST2:
 1875 0070 00000000 		.4byte	.LFB31
 1876 0074 02000000 		.4byte	.LCFI6
 1877 0078 0100     		.2byte	0x1
 1878 007a 5D       		.byte	0x5d
 1879 007b 02000000 		.4byte	.LCFI6
 1880 007f 04000000 		.4byte	.LCFI7
 1881 0083 0200     		.2byte	0x2
 1882 0085 7D       		.byte	0x7d
 1883 0086 0C       		.sleb128 12
 1884 0087 04000000 		.4byte	.LCFI7
 1885 008b 06000000 		.4byte	.LCFI8
 1886 008f 0200     		.2byte	0x2
 1887 0091 7D       		.byte	0x7d
 1888 0092 18       		.sleb128 24
 1889 0093 06000000 		.4byte	.LCFI8
 1890 0097 16010000 		.4byte	.LFE31
 1891 009b 0200     		.2byte	0x2
 1892 009d 77       		.byte	0x77
 1893 009e 18       		.sleb128 24
 1894 009f 00000000 		.4byte	0x0
 1895 00a3 00000000 		.4byte	0x0
 1896              	.LLST3:
 1897 00a7 00000000 		.4byte	.LFB32
 1898 00ab 02000000 		.4byte	.LCFI9
 1899 00af 0100     		.2byte	0x1
 1900 00b1 5D       		.byte	0x5d
 1901 00b2 02000000 		.4byte	.LCFI9
 1902 00b6 04000000 		.4byte	.LCFI10
 1903 00ba 0200     		.2byte	0x2
 1904 00bc 7D       		.byte	0x7d
 1905 00bd 04       		.sleb128 4
 1906 00be 04000000 		.4byte	.LCFI10
 1907 00c2 22000000 		.4byte	.LFE32
 1908 00c6 0200     		.2byte	0x2
 1909 00c8 77       		.byte	0x77
 1910 00c9 04       		.sleb128 4
 1911 00ca 00000000 		.4byte	0x0
 1912 00ce 00000000 		.4byte	0x0
 1913              	.LLST4:
 1914 00d2 00000000 		.4byte	.LFB33
 1915 00d6 02000000 		.4byte	.LCFI11
 1916 00da 0100     		.2byte	0x1
 1917 00dc 5D       		.byte	0x5d
 1918 00dd 02000000 		.4byte	.LCFI11
 1919 00e1 04000000 		.4byte	.LCFI12
 1920 00e5 0200     		.2byte	0x2
 1921 00e7 7D       		.byte	0x7d
 1922 00e8 04       		.sleb128 4
 1923 00e9 04000000 		.4byte	.LCFI12
 1924 00ed 16000000 		.4byte	.LFE33
 1925 00f1 0200     		.2byte	0x2
ARM GAS  C:\DOCUME~1\student\LOCALS~1\Temp\ccTcJUb5.s 			page 42


 1926 00f3 77       		.byte	0x77
 1927 00f4 04       		.sleb128 4
 1928 00f5 00000000 		.4byte	0x0
 1929 00f9 00000000 		.4byte	0x0
 1930              	.LLST5:
 1931 00fd 00000000 		.4byte	.LFB34
 1932 0101 02000000 		.4byte	.LCFI13
 1933 0105 0100     		.2byte	0x1
 1934 0107 5D       		.byte	0x5d
 1935 0108 02000000 		.4byte	.LCFI13
 1936 010c 04000000 		.4byte	.LCFI14
 1937 0110 0200     		.2byte	0x2
 1938 0112 7D       		.byte	0x7d
 1939 0113 08       		.sleb128 8
 1940 0114 04000000 		.4byte	.LCFI14
 1941 0118 06000000 		.4byte	.LCFI15
 1942 011c 0200     		.2byte	0x2
 1943 011e 7D       		.byte	0x7d
 1944 011f 30       		.sleb128 48
 1945 0120 06000000 		.4byte	.LCFI15
 1946 0124 64000000 		.4byte	.LFE34
 1947 0128 0200     		.2byte	0x2
 1948 012a 77       		.byte	0x77
 1949 012b 30       		.sleb128 48
 1950 012c 00000000 		.4byte	0x0
 1951 0130 00000000 		.4byte	0x0
 1952              	.LLST6:
 1953 0134 00000000 		.4byte	.LFB35
 1954 0138 02000000 		.4byte	.LCFI16
 1955 013c 0100     		.2byte	0x1
 1956 013e 5D       		.byte	0x5d
 1957 013f 02000000 		.4byte	.LCFI16
 1958 0143 04000000 		.4byte	.LCFI17
 1959 0147 0200     		.2byte	0x2
 1960 0149 7D       		.byte	0x7d
 1961 014a 08       		.sleb128 8
 1962 014b 04000000 		.4byte	.LCFI17
 1963 014f 06000000 		.4byte	.LCFI18
 1964 0153 0200     		.2byte	0x2
 1965 0155 7D       		.byte	0x7d
 1966 0156 30       		.sleb128 48
 1967 0157 06000000 		.4byte	.LCFI18
 1968 015b 54000000 		.4byte	.LFE35
 1969 015f 0200     		.2byte	0x2
 1970 0161 77       		.byte	0x77
 1971 0162 30       		.sleb128 48
 1972 0163 00000000 		.4byte	0x0
 1973 0167 00000000 		.4byte	0x0
 1974              	.LLST7:
 1975 016b 00000000 		.4byte	.LFB36
 1976 016f 02000000 		.4byte	.LCFI19
 1977 0173 0100     		.2byte	0x1
 1978 0175 5D       		.byte	0x5d
 1979 0176 02000000 		.4byte	.LCFI19
 1980 017a 04000000 		.4byte	.LCFI20
 1981 017e 0200     		.2byte	0x2
 1982 0180 7D       		.byte	0x7d
ARM GAS  C:\DOCUME~1\student\LOCALS~1\Temp\ccTcJUb5.s 			page 43


 1983 0181 08       		.sleb128 8
 1984 0182 04000000 		.4byte	.LCFI20
 1985 0186 06000000 		.4byte	.LCFI21
 1986 018a 0200     		.2byte	0x2
 1987 018c 7D       		.byte	0x7d
 1988 018d 30       		.sleb128 48
 1989 018e 06000000 		.4byte	.LCFI21
 1990 0192 F2000000 		.4byte	.LFE36
 1991 0196 0200     		.2byte	0x2
 1992 0198 77       		.byte	0x77
 1993 0199 30       		.sleb128 48
 1994 019a 00000000 		.4byte	0x0
 1995 019e 00000000 		.4byte	0x0
 1996              	.LLST8:
 1997 01a2 00000000 		.4byte	.LFB37
 1998 01a6 02000000 		.4byte	.LCFI22
 1999 01aa 0100     		.2byte	0x1
 2000 01ac 5D       		.byte	0x5d
 2001 01ad 02000000 		.4byte	.LCFI22
 2002 01b1 04000000 		.4byte	.LCFI23
 2003 01b5 0200     		.2byte	0x2
 2004 01b7 7D       		.byte	0x7d
 2005 01b8 08       		.sleb128 8
 2006 01b9 04000000 		.4byte	.LCFI23
 2007 01bd 06000000 		.4byte	.LCFI24
 2008 01c1 0200     		.2byte	0x2
 2009 01c3 7D       		.byte	0x7d
 2010 01c4 10       		.sleb128 16
 2011 01c5 06000000 		.4byte	.LCFI24
 2012 01c9 D6000000 		.4byte	.LFE37
 2013 01cd 0200     		.2byte	0x2
 2014 01cf 77       		.byte	0x77
 2015 01d0 10       		.sleb128 16
 2016 01d1 00000000 		.4byte	0x0
 2017 01d5 00000000 		.4byte	0x0
 2018              	.LLST9:
 2019 01d9 00000000 		.4byte	.LFB38
 2020 01dd 02000000 		.4byte	.LCFI25
 2021 01e1 0100     		.2byte	0x1
 2022 01e3 5D       		.byte	0x5d
 2023 01e4 02000000 		.4byte	.LCFI25
 2024 01e8 04000000 		.4byte	.LCFI26
 2025 01ec 0200     		.2byte	0x2
 2026 01ee 7D       		.byte	0x7d
 2027 01ef 08       		.sleb128 8
 2028 01f0 04000000 		.4byte	.LCFI26
 2029 01f4 0A000000 		.4byte	.LFE38
 2030 01f8 0200     		.2byte	0x2
 2031 01fa 77       		.byte	0x77
 2032 01fb 08       		.sleb128 8
 2033 01fc 00000000 		.4byte	0x0
 2034 0200 00000000 		.4byte	0x0
 2035              	.LLST10:
 2036 0204 00000000 		.4byte	.LFB39
 2037 0208 02000000 		.4byte	.LCFI27
 2038 020c 0100     		.2byte	0x1
 2039 020e 5D       		.byte	0x5d
ARM GAS  C:\DOCUME~1\student\LOCALS~1\Temp\ccTcJUb5.s 			page 44


 2040 020f 02000000 		.4byte	.LCFI27
 2041 0213 04000000 		.4byte	.LCFI28
 2042 0217 0200     		.2byte	0x2
 2043 0219 7D       		.byte	0x7d
 2044 021a 08       		.sleb128 8
 2045 021b 04000000 		.4byte	.LCFI28
 2046 021f 06000000 		.4byte	.LCFI29
 2047 0223 0200     		.2byte	0x2
 2048 0225 7D       		.byte	0x7d
 2049 0226 10       		.sleb128 16
 2050 0227 06000000 		.4byte	.LCFI29
 2051 022b 22010000 		.4byte	.LFE39
 2052 022f 0200     		.2byte	0x2
 2053 0231 77       		.byte	0x77
 2054 0232 10       		.sleb128 16
 2055 0233 00000000 		.4byte	0x0
 2056 0237 00000000 		.4byte	0x0
 2057              	.LLST11:
 2058 023b 00000000 		.4byte	.LFB40
 2059 023f 02000000 		.4byte	.LCFI30
 2060 0243 0100     		.2byte	0x1
 2061 0245 5D       		.byte	0x5d
 2062 0246 02000000 		.4byte	.LCFI30
 2063 024a 04000000 		.4byte	.LCFI31
 2064 024e 0200     		.2byte	0x2
 2065 0250 7D       		.byte	0x7d
 2066 0251 08       		.sleb128 8
 2067 0252 04000000 		.4byte	.LCFI31
 2068 0256 0E000000 		.4byte	.LFE40
 2069 025a 0200     		.2byte	0x2
 2070 025c 77       		.byte	0x77
 2071 025d 08       		.sleb128 8
 2072 025e 00000000 		.4byte	0x0
 2073 0262 00000000 		.4byte	0x0
 2074              	.LLST12:
 2075 0266 00000000 		.4byte	.LFB41
 2076 026a 02000000 		.4byte	.LCFI32
 2077 026e 0100     		.2byte	0x1
 2078 0270 5D       		.byte	0x5d
 2079 0271 02000000 		.4byte	.LCFI32
 2080 0275 04000000 		.4byte	.LCFI33
 2081 0279 0200     		.2byte	0x2
 2082 027b 7D       		.byte	0x7d
 2083 027c 10       		.sleb128 16
 2084 027d 04000000 		.4byte	.LCFI33
 2085 0281 A4000000 		.4byte	.LFE41
 2086 0285 0200     		.2byte	0x2
 2087 0287 77       		.byte	0x77
 2088 0288 10       		.sleb128 16
 2089 0289 00000000 		.4byte	0x0
 2090 028d 00000000 		.4byte	0x0
 2091              	.LLST13:
 2092 0291 00000000 		.4byte	.LFB42
 2093 0295 02000000 		.4byte	.LCFI34
 2094 0299 0100     		.2byte	0x1
 2095 029b 5D       		.byte	0x5d
 2096 029c 02000000 		.4byte	.LCFI34
ARM GAS  C:\DOCUME~1\student\LOCALS~1\Temp\ccTcJUb5.s 			page 45


 2097 02a0 04000000 		.4byte	.LCFI35
 2098 02a4 0200     		.2byte	0x2
 2099 02a6 7D       		.byte	0x7d
 2100 02a7 04       		.sleb128 4
 2101 02a8 04000000 		.4byte	.LCFI35
 2102 02ac 06000000 		.4byte	.LCFI36
 2103 02b0 0200     		.2byte	0x2
 2104 02b2 7D       		.byte	0x7d
 2105 02b3 10       		.sleb128 16
 2106 02b4 06000000 		.4byte	.LCFI36
 2107 02b8 14000000 		.4byte	.LFE42
 2108 02bc 0200     		.2byte	0x2
 2109 02be 77       		.byte	0x77
 2110 02bf 10       		.sleb128 16
 2111 02c0 00000000 		.4byte	0x0
 2112 02c4 00000000 		.4byte	0x0
 2113              	.LLST14:
 2114 02c8 00000000 		.4byte	.LFB43
 2115 02cc 02000000 		.4byte	.LCFI37
 2116 02d0 0100     		.2byte	0x1
 2117 02d2 5D       		.byte	0x5d
 2118 02d3 02000000 		.4byte	.LCFI37
 2119 02d7 04000000 		.4byte	.LCFI38
 2120 02db 0200     		.2byte	0x2
 2121 02dd 7D       		.byte	0x7d
 2122 02de 04       		.sleb128 4
 2123 02df 04000000 		.4byte	.LCFI38
 2124 02e3 7A000000 		.4byte	.LFE43
 2125 02e7 0200     		.2byte	0x2
 2126 02e9 77       		.byte	0x77
 2127 02ea 04       		.sleb128 4
 2128 02eb 00000000 		.4byte	0x0
 2129 02ef 00000000 		.4byte	0x0
 2130              	.LLST15:
 2131 02f3 00000000 		.4byte	.LFB44
 2132 02f7 02000000 		.4byte	.LCFI39
 2133 02fb 0100     		.2byte	0x1
 2134 02fd 5D       		.byte	0x5d
 2135 02fe 02000000 		.4byte	.LCFI39
 2136 0302 04000000 		.4byte	.LCFI40
 2137 0306 0200     		.2byte	0x2
 2138 0308 7D       		.byte	0x7d
 2139 0309 08       		.sleb128 8
 2140 030a 04000000 		.4byte	.LCFI40
 2141 030e 44000000 		.4byte	.LFE44
 2142 0312 0200     		.2byte	0x2
 2143 0314 77       		.byte	0x77
 2144 0315 08       		.sleb128 8
 2145 0316 00000000 		.4byte	0x0
 2146 031a 00000000 		.4byte	0x0
 2147              	.LLST16:
 2148 031e 00000000 		.4byte	.LFB45
 2149 0322 02000000 		.4byte	.LCFI41
 2150 0326 0100     		.2byte	0x1
 2151 0328 5D       		.byte	0x5d
 2152 0329 02000000 		.4byte	.LCFI41
 2153 032d 04000000 		.4byte	.LCFI42
ARM GAS  C:\DOCUME~1\student\LOCALS~1\Temp\ccTcJUb5.s 			page 46


 2154 0331 0200     		.2byte	0x2
 2155 0333 7D       		.byte	0x7d
 2156 0334 08       		.sleb128 8
 2157 0335 04000000 		.4byte	.LCFI42
 2158 0339 16000000 		.4byte	.LFE45
 2159 033d 0200     		.2byte	0x2
 2160 033f 77       		.byte	0x77
 2161 0340 08       		.sleb128 8
 2162 0341 00000000 		.4byte	0x0
 2163 0345 00000000 		.4byte	0x0
 2164              		.file 4 "./Generated_Source/PSoC5/cytypes.h"
 2165              		.file 5 ".\\/state.h"
 2166              		.file 6 "./Generated_Source/PSoC5/core_cm3.h"
 2167              		.section	.debug_info
 2168 0000 99050000 		.4byte	0x599
 2169 0004 0200     		.2byte	0x2
 2170 0006 00000000 		.4byte	.Ldebug_abbrev0
 2171 000a 04       		.byte	0x4
 2172 000b 01       		.uleb128 0x1
 2173 000c 46020000 		.4byte	.LASF50
 2174 0010 01       		.byte	0x1
 2175 0011 0A020000 		.4byte	.LASF51
 2176 0015 19010000 		.4byte	.LASF52
 2177 0019 00000000 		.4byte	0x0
 2178 001d 00000000 		.4byte	0x0
 2179 0021 00000000 		.4byte	.Ldebug_ranges0+0x0
 2180 0025 00000000 		.4byte	.Ldebug_line0
 2181 0029 02       		.uleb128 0x2
 2182 002a 01       		.byte	0x1
 2183 002b 06       		.byte	0x6
 2184 002c A3000000 		.4byte	.LASF0
 2185 0030 02       		.uleb128 0x2
 2186 0031 01       		.byte	0x1
 2187 0032 08       		.byte	0x8
 2188 0033 32010000 		.4byte	.LASF1
 2189 0037 02       		.uleb128 0x2
 2190 0038 02       		.byte	0x2
 2191 0039 05       		.byte	0x5
 2192 003a 31000000 		.4byte	.LASF2
 2193 003e 02       		.uleb128 0x2
 2194 003f 02       		.byte	0x2
 2195 0040 07       		.byte	0x7
 2196 0041 83010000 		.4byte	.LASF3
 2197 0045 02       		.uleb128 0x2
 2198 0046 04       		.byte	0x4
 2199 0047 05       		.byte	0x5
 2200 0048 9B010000 		.4byte	.LASF4
 2201 004c 02       		.uleb128 0x2
 2202 004d 04       		.byte	0x4
 2203 004e 07       		.byte	0x7
 2204 004f DA010000 		.4byte	.LASF5
 2205 0053 02       		.uleb128 0x2
 2206 0054 08       		.byte	0x8
 2207 0055 05       		.byte	0x5
 2208 0056 B5000000 		.4byte	.LASF6
 2209 005a 02       		.uleb128 0x2
 2210 005b 08       		.byte	0x8
ARM GAS  C:\DOCUME~1\student\LOCALS~1\Temp\ccTcJUb5.s 			page 47


 2211 005c 07       		.byte	0x7
 2212 005d 59010000 		.4byte	.LASF7
 2213 0061 03       		.uleb128 0x3
 2214 0062 04       		.byte	0x4
 2215 0063 05       		.byte	0x5
 2216 0064 696E7400 		.ascii	"int\000"
 2217 0068 02       		.uleb128 0x2
 2218 0069 04       		.byte	0x4
 2219 006a 07       		.byte	0x7
 2220 006b 70010000 		.4byte	.LASF8
 2221 006f 02       		.uleb128 0x2
 2222 0070 01       		.byte	0x1
 2223 0071 08       		.byte	0x8
 2224 0072 96010000 		.4byte	.LASF9
 2225 0076 04       		.uleb128 0x4
 2226 0077 8D000000 		.4byte	.LASF10
 2227 007b 04       		.byte	0x4
 2228 007c 60       		.byte	0x60
 2229 007d 30000000 		.4byte	0x30
 2230 0081 04       		.uleb128 0x4
 2231 0082 74000000 		.4byte	.LASF11
 2232 0086 04       		.byte	0x4
 2233 0087 61       		.byte	0x61
 2234 0088 3E000000 		.4byte	0x3e
 2235 008c 05       		.uleb128 0x5
 2236 008d 04       		.byte	0x4
 2237 008e 07       		.byte	0x7
 2238 008f 02       		.uleb128 0x2
 2239 0090 08       		.byte	0x8
 2240 0091 04       		.byte	0x4
 2241 0092 F5010000 		.4byte	.LASF12
 2242 0096 02       		.uleb128 0x2
 2243 0097 04       		.byte	0x4
 2244 0098 04       		.byte	0x4
 2245 0099 AF000000 		.4byte	.LASF13
 2246 009d 02       		.uleb128 0x2
 2247 009e 08       		.byte	0x8
 2248 009f 04       		.byte	0x4
 2249 00a0 4C000000 		.4byte	.LASF14
 2250 00a4 06       		.uleb128 0x6
 2251 00a5 10       		.byte	0x10
 2252 00a6 05       		.byte	0x5
 2253 00a7 07       		.byte	0x7
 2254 00a8 E5000000 		.4byte	0xe5
 2255 00ac 07       		.uleb128 0x7
 2256 00ad FC010000 		.4byte	.LASF15
 2257 00b1 05       		.byte	0x5
 2258 00b2 08       		.byte	0x8
 2259 00b3 45000000 		.4byte	0x45
 2260 00b7 02       		.byte	0x2
 2261 00b8 23       		.byte	0x23
 2262 00b9 00       		.uleb128 0x0
 2263 00ba 07       		.uleb128 0x7
 2264 00bb 2C020000 		.4byte	.LASF16
 2265 00bf 05       		.byte	0x5
 2266 00c0 09       		.byte	0x9
 2267 00c1 68000000 		.4byte	0x68
ARM GAS  C:\DOCUME~1\student\LOCALS~1\Temp\ccTcJUb5.s 			page 48


 2268 00c5 02       		.byte	0x2
 2269 00c6 23       		.byte	0x23
 2270 00c7 04       		.uleb128 0x4
 2271 00c8 07       		.uleb128 0x7
 2272 00c9 C3000000 		.4byte	.LASF17
 2273 00cd 05       		.byte	0x5
 2274 00ce 0A       		.byte	0xa
 2275 00cf 68000000 		.4byte	0x68
 2276 00d3 02       		.byte	0x2
 2277 00d4 23       		.byte	0x23
 2278 00d5 08       		.uleb128 0x8
 2279 00d6 07       		.uleb128 0x7
 2280 00d7 6D000000 		.4byte	.LASF18
 2281 00db 05       		.byte	0x5
 2282 00dc 0B       		.byte	0xb
 2283 00dd E5000000 		.4byte	0xe5
 2284 00e1 02       		.byte	0x2
 2285 00e2 23       		.byte	0x23
 2286 00e3 0C       		.uleb128 0xc
 2287 00e4 00       		.byte	0x0
 2288 00e5 02       		.uleb128 0x2
 2289 00e6 01       		.byte	0x1
 2290 00e7 02       		.byte	0x2
 2291 00e8 B4010000 		.4byte	.LASF19
 2292 00ec 04       		.uleb128 0x4
 2293 00ed 13020000 		.4byte	.LASF20
 2294 00f1 05       		.byte	0x5
 2295 00f2 0C       		.byte	0xc
 2296 00f3 A4000000 		.4byte	0xa4
 2297 00f7 08       		.uleb128 0x8
 2298 00f8 01       		.byte	0x1
 2299 00f9 46465400 		.ascii	"FFT\000"
 2300 00fd 01       		.byte	0x1
 2301 00fe 10       		.byte	0x10
 2302 00ff 01       		.byte	0x1
 2303 0100 37000000 		.4byte	0x37
 2304 0104 00000000 		.4byte	.LFB29
 2305 0108 56050000 		.4byte	.LFE29
 2306 010c 00000000 		.4byte	.LLST0
 2307 0110 3C020000 		.4byte	0x23c
 2308 0114 09       		.uleb128 0x9
 2309 0115 64697200 		.ascii	"dir\000"
 2310 0119 01       		.byte	0x1
 2311 011a 10       		.byte	0x10
 2312 011b 61000000 		.4byte	0x61
 2313 011f 03       		.byte	0x3
 2314 0120 91       		.byte	0x91
 2315 0121 F47E     		.sleb128 -140
 2316 0123 09       		.uleb128 0x9
 2317 0124 6D00     		.ascii	"m\000"
 2318 0126 01       		.byte	0x1
 2319 0127 10       		.byte	0x10
 2320 0128 45000000 		.4byte	0x45
 2321 012c 03       		.byte	0x3
 2322 012d 91       		.byte	0x91
 2323 012e F07E     		.sleb128 -144
 2324 0130 09       		.uleb128 0x9
ARM GAS  C:\DOCUME~1\student\LOCALS~1\Temp\ccTcJUb5.s 			page 49


 2325 0131 7800     		.ascii	"x\000"
 2326 0133 01       		.byte	0x1
 2327 0134 10       		.byte	0x10
 2328 0135 3C020000 		.4byte	0x23c
 2329 0139 03       		.byte	0x3
 2330 013a 91       		.byte	0x91
 2331 013b EC7E     		.sleb128 -148
 2332 013d 09       		.uleb128 0x9
 2333 013e 7900     		.ascii	"y\000"
 2334 0140 01       		.byte	0x1
 2335 0141 10       		.byte	0x10
 2336 0142 3C020000 		.4byte	0x23c
 2337 0146 03       		.byte	0x3
 2338 0147 91       		.byte	0x91
 2339 0148 E87E     		.sleb128 -152
 2340 014a 0A       		.uleb128 0xa
 2341 014b 6E00     		.ascii	"n\000"
 2342 014d 01       		.byte	0x1
 2343 014e 15       		.byte	0x15
 2344 014f 45000000 		.4byte	0x45
 2345 0153 03       		.byte	0x3
 2346 0154 91       		.byte	0x91
 2347 0155 FC7E     		.sleb128 -132
 2348 0157 0A       		.uleb128 0xa
 2349 0158 6900     		.ascii	"i\000"
 2350 015a 01       		.byte	0x1
 2351 015b 15       		.byte	0x15
 2352 015c 45000000 		.4byte	0x45
 2353 0160 03       		.byte	0x3
 2354 0161 91       		.byte	0x91
 2355 0162 807F     		.sleb128 -128
 2356 0164 0A       		.uleb128 0xa
 2357 0165 693100   		.ascii	"i1\000"
 2358 0168 01       		.byte	0x1
 2359 0169 15       		.byte	0x15
 2360 016a 45000000 		.4byte	0x45
 2361 016e 03       		.byte	0x3
 2362 016f 91       		.byte	0x91
 2363 0170 847F     		.sleb128 -124
 2364 0172 0A       		.uleb128 0xa
 2365 0173 6A00     		.ascii	"j\000"
 2366 0175 01       		.byte	0x1
 2367 0176 15       		.byte	0x15
 2368 0177 45000000 		.4byte	0x45
 2369 017b 03       		.byte	0x3
 2370 017c 91       		.byte	0x91
 2371 017d 887F     		.sleb128 -120
 2372 017f 0A       		.uleb128 0xa
 2373 0180 6B00     		.ascii	"k\000"
 2374 0182 01       		.byte	0x1
 2375 0183 15       		.byte	0x15
 2376 0184 45000000 		.4byte	0x45
 2377 0188 03       		.byte	0x3
 2378 0189 91       		.byte	0x91
 2379 018a 8C7F     		.sleb128 -116
 2380 018c 0A       		.uleb128 0xa
 2381 018d 693200   		.ascii	"i2\000"
ARM GAS  C:\DOCUME~1\student\LOCALS~1\Temp\ccTcJUb5.s 			page 50


 2382 0190 01       		.byte	0x1
 2383 0191 15       		.byte	0x15
 2384 0192 45000000 		.4byte	0x45
 2385 0196 03       		.byte	0x3
 2386 0197 91       		.byte	0x91
 2387 0198 907F     		.sleb128 -112
 2388 019a 0A       		.uleb128 0xa
 2389 019b 6C00     		.ascii	"l\000"
 2390 019d 01       		.byte	0x1
 2391 019e 15       		.byte	0x15
 2392 019f 45000000 		.4byte	0x45
 2393 01a3 03       		.byte	0x3
 2394 01a4 91       		.byte	0x91
 2395 01a5 947F     		.sleb128 -108
 2396 01a7 0A       		.uleb128 0xa
 2397 01a8 6C3100   		.ascii	"l1\000"
 2398 01ab 01       		.byte	0x1
 2399 01ac 15       		.byte	0x15
 2400 01ad 45000000 		.4byte	0x45
 2401 01b1 03       		.byte	0x3
 2402 01b2 91       		.byte	0x91
 2403 01b3 987F     		.sleb128 -104
 2404 01b5 0A       		.uleb128 0xa
 2405 01b6 6C3200   		.ascii	"l2\000"
 2406 01b9 01       		.byte	0x1
 2407 01ba 15       		.byte	0x15
 2408 01bb 45000000 		.4byte	0x45
 2409 01bf 03       		.byte	0x3
 2410 01c0 91       		.byte	0x91
 2411 01c1 9C7F     		.sleb128 -100
 2412 01c3 0A       		.uleb128 0xa
 2413 01c4 633100   		.ascii	"c1\000"
 2414 01c7 01       		.byte	0x1
 2415 01c8 16       		.byte	0x16
 2416 01c9 8F000000 		.4byte	0x8f
 2417 01cd 03       		.byte	0x3
 2418 01ce 91       		.byte	0x91
 2419 01cf A07F     		.sleb128 -96
 2420 01d1 0A       		.uleb128 0xa
 2421 01d2 633200   		.ascii	"c2\000"
 2422 01d5 01       		.byte	0x1
 2423 01d6 16       		.byte	0x16
 2424 01d7 8F000000 		.4byte	0x8f
 2425 01db 03       		.byte	0x3
 2426 01dc 91       		.byte	0x91
 2427 01dd A87F     		.sleb128 -88
 2428 01df 0A       		.uleb128 0xa
 2429 01e0 747800   		.ascii	"tx\000"
 2430 01e3 01       		.byte	0x1
 2431 01e4 16       		.byte	0x16
 2432 01e5 8F000000 		.4byte	0x8f
 2433 01e9 03       		.byte	0x3
 2434 01ea 91       		.byte	0x91
 2435 01eb B07F     		.sleb128 -80
 2436 01ed 0A       		.uleb128 0xa
 2437 01ee 747900   		.ascii	"ty\000"
 2438 01f1 01       		.byte	0x1
ARM GAS  C:\DOCUME~1\student\LOCALS~1\Temp\ccTcJUb5.s 			page 51


 2439 01f2 16       		.byte	0x16
 2440 01f3 8F000000 		.4byte	0x8f
 2441 01f7 03       		.byte	0x3
 2442 01f8 91       		.byte	0x91
 2443 01f9 B87F     		.sleb128 -72
 2444 01fb 0A       		.uleb128 0xa
 2445 01fc 743100   		.ascii	"t1\000"
 2446 01ff 01       		.byte	0x1
 2447 0200 16       		.byte	0x16
 2448 0201 8F000000 		.4byte	0x8f
 2449 0205 02       		.byte	0x2
 2450 0206 91       		.byte	0x91
 2451 0207 40       		.sleb128 -64
 2452 0208 0A       		.uleb128 0xa
 2453 0209 743200   		.ascii	"t2\000"
 2454 020c 01       		.byte	0x1
 2455 020d 16       		.byte	0x16
 2456 020e 8F000000 		.4byte	0x8f
 2457 0212 02       		.byte	0x2
 2458 0213 91       		.byte	0x91
 2459 0214 48       		.sleb128 -56
 2460 0215 0A       		.uleb128 0xa
 2461 0216 753100   		.ascii	"u1\000"
 2462 0219 01       		.byte	0x1
 2463 021a 16       		.byte	0x16
 2464 021b 8F000000 		.4byte	0x8f
 2465 021f 02       		.byte	0x2
 2466 0220 91       		.byte	0x91
 2467 0221 50       		.sleb128 -48
 2468 0222 0A       		.uleb128 0xa
 2469 0223 753200   		.ascii	"u2\000"
 2470 0226 01       		.byte	0x1
 2471 0227 16       		.byte	0x16
 2472 0228 8F000000 		.4byte	0x8f
 2473 022c 02       		.byte	0x2
 2474 022d 91       		.byte	0x91
 2475 022e 58       		.sleb128 -40
 2476 022f 0A       		.uleb128 0xa
 2477 0230 7A00     		.ascii	"z\000"
 2478 0232 01       		.byte	0x1
 2479 0233 16       		.byte	0x16
 2480 0234 8F000000 		.4byte	0x8f
 2481 0238 02       		.byte	0x2
 2482 0239 91       		.byte	0x91
 2483 023a 60       		.sleb128 -32
 2484 023b 00       		.byte	0x0
 2485 023c 0B       		.uleb128 0xb
 2486 023d 04       		.byte	0x4
 2487 023e 8F000000 		.4byte	0x8f
 2488 0242 0C       		.uleb128 0xc
 2489 0243 01       		.byte	0x1
 2490 0244 EC010000 		.4byte	.LASF21
 2491 0248 01       		.byte	0x1
 2492 0249 5C       		.byte	0x5c
 2493 024a 00000000 		.4byte	.LFB30
 2494 024e 80000000 		.4byte	.LFE30
 2495 0252 39000000 		.4byte	.LLST1
ARM GAS  C:\DOCUME~1\student\LOCALS~1\Temp\ccTcJUb5.s 			page 52


 2496 0256 67020000 		.4byte	0x267
 2497 025a 0A       		.uleb128 0xa
 2498 025b 6900     		.ascii	"i\000"
 2499 025d 01       		.byte	0x1
 2500 025e 5D       		.byte	0x5d
 2501 025f 61000000 		.4byte	0x61
 2502 0263 02       		.byte	0x2
 2503 0264 91       		.byte	0x91
 2504 0265 74       		.sleb128 -12
 2505 0266 00       		.byte	0x0
 2506 0267 0C       		.uleb128 0xc
 2507 0268 01       		.byte	0x1
 2508 0269 D2000000 		.4byte	.LASF22
 2509 026d 01       		.byte	0x1
 2510 026e 66       		.byte	0x66
 2511 026f 00000000 		.4byte	.LFB31
 2512 0273 16010000 		.4byte	.LFE31
 2513 0277 70000000 		.4byte	.LLST2
 2514 027b 98020000 		.4byte	0x298
 2515 027f 0A       		.uleb128 0xa
 2516 0280 6900     		.ascii	"i\000"
 2517 0282 01       		.byte	0x1
 2518 0283 67       		.byte	0x67
 2519 0284 61000000 		.4byte	0x61
 2520 0288 02       		.byte	0x2
 2521 0289 91       		.byte	0x91
 2522 028a 68       		.sleb128 -24
 2523 028b 0A       		.uleb128 0xa
 2524 028c 6A00     		.ascii	"j\000"
 2525 028e 01       		.byte	0x1
 2526 028f 68       		.byte	0x68
 2527 0290 61000000 		.4byte	0x61
 2528 0294 02       		.byte	0x2
 2529 0295 91       		.byte	0x91
 2530 0296 6C       		.sleb128 -20
 2531 0297 00       		.byte	0x0
 2532 0298 0D       		.uleb128 0xd
 2533 0299 01       		.byte	0x1
 2534 029a C3010000 		.4byte	.LASF28
 2535 029e 02       		.byte	0x2
 2536 029f 03       		.byte	0x3
 2537 02a0 00000000 		.4byte	.LFB32
 2538 02a4 22000000 		.4byte	.LFE32
 2539 02a8 A7000000 		.4byte	.LLST3
 2540 02ac 0E       		.uleb128 0xe
 2541 02ad 01       		.byte	0x1
 2542 02ae D9000000 		.4byte	.LASF53
 2543 02b2 02       		.byte	0x2
 2544 02b3 07       		.byte	0x7
 2545 02b4 45000000 		.4byte	0x45
 2546 02b8 00000000 		.4byte	.LFB33
 2547 02bc 16000000 		.4byte	.LFE33
 2548 02c0 D2000000 		.4byte	.LLST4
 2549 02c4 0C       		.uleb128 0xc
 2550 02c5 01       		.byte	0x1
 2551 02c6 80000000 		.4byte	.LASF23
 2552 02ca 03       		.byte	0x3
ARM GAS  C:\DOCUME~1\student\LOCALS~1\Temp\ccTcJUb5.s 			page 53


 2553 02cb 1C       		.byte	0x1c
 2554 02cc 00000000 		.4byte	.LFB34
 2555 02d0 64000000 		.4byte	.LFE34
 2556 02d4 FD000000 		.4byte	.LLST5
 2557 02d8 F7020000 		.4byte	0x2f7
 2558 02dc 0F       		.uleb128 0xf
 2559 02dd 36020000 		.4byte	.LASF24
 2560 02e1 03       		.byte	0x3
 2561 02e2 1D       		.byte	0x1d
 2562 02e3 F7020000 		.4byte	0x2f7
 2563 02e7 02       		.byte	0x2
 2564 02e8 91       		.byte	0x91
 2565 02e9 54       		.sleb128 -44
 2566 02ea 0A       		.uleb128 0xa
 2567 02eb 6900     		.ascii	"i\000"
 2568 02ed 03       		.byte	0x3
 2569 02ee 1F       		.byte	0x1f
 2570 02ef 61000000 		.4byte	0x61
 2571 02f3 02       		.byte	0x2
 2572 02f4 91       		.byte	0x91
 2573 02f5 74       		.sleb128 -12
 2574 02f6 00       		.byte	0x0
 2575 02f7 10       		.uleb128 0x10
 2576 02f8 6F000000 		.4byte	0x6f
 2577 02fc 07030000 		.4byte	0x307
 2578 0300 11       		.uleb128 0x11
 2579 0301 8C000000 		.4byte	0x8c
 2580 0305 1F       		.byte	0x1f
 2581 0306 00       		.byte	0x0
 2582 0307 0C       		.uleb128 0xc
 2583 0308 01       		.byte	0x1
 2584 0309 00000000 		.4byte	.LASF25
 2585 030d 03       		.byte	0x3
 2586 030e 29       		.byte	0x29
 2587 030f 00000000 		.4byte	.LFB35
 2588 0313 54000000 		.4byte	.LFE35
 2589 0317 34010000 		.4byte	.LLST6
 2590 031b 3A030000 		.4byte	0x33a
 2591 031f 0F       		.uleb128 0xf
 2592 0320 36020000 		.4byte	.LASF24
 2593 0324 03       		.byte	0x3
 2594 0325 2A       		.byte	0x2a
 2595 0326 F7020000 		.4byte	0x2f7
 2596 032a 02       		.byte	0x2
 2597 032b 91       		.byte	0x91
 2598 032c 54       		.sleb128 -44
 2599 032d 0A       		.uleb128 0xa
 2600 032e 6900     		.ascii	"i\000"
 2601 0330 03       		.byte	0x3
 2602 0331 2C       		.byte	0x2c
 2603 0332 61000000 		.4byte	0x61
 2604 0336 02       		.byte	0x2
 2605 0337 91       		.byte	0x91
 2606 0338 74       		.sleb128 -12
 2607 0339 00       		.byte	0x0
 2608 033a 0C       		.uleb128 0xc
 2609 033b 01       		.byte	0x1
ARM GAS  C:\DOCUME~1\student\LOCALS~1\Temp\ccTcJUb5.s 			page 54


 2610 033c 58000000 		.4byte	.LASF26
 2611 0340 03       		.byte	0x3
 2612 0341 36       		.byte	0x36
 2613 0342 00000000 		.4byte	.LFB36
 2614 0346 F2000000 		.4byte	.LFE36
 2615 034a 6B010000 		.4byte	.LLST7
 2616 034e 6D030000 		.4byte	0x36d
 2617 0352 0F       		.uleb128 0xf
 2618 0353 36020000 		.4byte	.LASF24
 2619 0357 03       		.byte	0x3
 2620 0358 37       		.byte	0x37
 2621 0359 F7020000 		.4byte	0x2f7
 2622 035d 02       		.byte	0x2
 2623 035e 91       		.byte	0x91
 2624 035f 54       		.sleb128 -44
 2625 0360 0A       		.uleb128 0xa
 2626 0361 6900     		.ascii	"i\000"
 2627 0363 03       		.byte	0x3
 2628 0364 39       		.byte	0x39
 2629 0365 61000000 		.4byte	0x61
 2630 0369 02       		.byte	0x2
 2631 036a 91       		.byte	0x91
 2632 036b 74       		.sleb128 -12
 2633 036c 00       		.byte	0x0
 2634 036d 0C       		.uleb128 0xc
 2635 036e 01       		.byte	0x1
 2636 036f 00010000 		.4byte	.LASF27
 2637 0373 03       		.byte	0x3
 2638 0374 53       		.byte	0x53
 2639 0375 00000000 		.4byte	.LFB37
 2640 0379 D6000000 		.4byte	.LFE37
 2641 037d A2010000 		.4byte	.LLST8
 2642 0381 A0030000 		.4byte	0x3a0
 2643 0385 0A       		.uleb128 0xa
 2644 0386 6900     		.ascii	"i\000"
 2645 0388 03       		.byte	0x3
 2646 0389 56       		.byte	0x56
 2647 038a 61000000 		.4byte	0x61
 2648 038e 02       		.byte	0x2
 2649 038f 91       		.byte	0x91
 2650 0390 70       		.sleb128 -16
 2651 0391 0F       		.uleb128 0xf
 2652 0392 36020000 		.4byte	.LASF24
 2653 0396 03       		.byte	0x3
 2654 0397 57       		.byte	0x57
 2655 0398 76000000 		.4byte	0x76
 2656 039c 02       		.byte	0x2
 2657 039d 91       		.byte	0x91
 2658 039e 77       		.sleb128 -9
 2659 039f 00       		.byte	0x0
 2660 03a0 0D       		.uleb128 0xd
 2661 03a1 01       		.byte	0x1
 2662 03a2 A4010000 		.4byte	.LASF29
 2663 03a6 03       		.byte	0x3
 2664 03a7 77       		.byte	0x77
 2665 03a8 00000000 		.4byte	.LFB38
 2666 03ac 0A000000 		.4byte	.LFE38
ARM GAS  C:\DOCUME~1\student\LOCALS~1\Temp\ccTcJUb5.s 			page 55


 2667 03b0 D9010000 		.4byte	.LLST9
 2668 03b4 0C       		.uleb128 0xc
 2669 03b5 01       		.byte	0x1
 2670 03b6 40010000 		.4byte	.LASF30
 2671 03ba 03       		.byte	0x3
 2672 03bb 8F       		.byte	0x8f
 2673 03bc 00000000 		.4byte	.LFB39
 2674 03c0 22010000 		.4byte	.LFE39
 2675 03c4 04020000 		.4byte	.LLST10
 2676 03c8 DB030000 		.4byte	0x3db
 2677 03cc 0F       		.uleb128 0xf
 2678 03cd 1D000000 		.4byte	.LASF31
 2679 03d1 03       		.byte	0x3
 2680 03d2 90       		.byte	0x90
 2681 03d3 45000000 		.4byte	0x45
 2682 03d7 02       		.byte	0x2
 2683 03d8 91       		.byte	0x91
 2684 03d9 74       		.sleb128 -12
 2685 03da 00       		.byte	0x0
 2686 03db 0D       		.uleb128 0xd
 2687 03dc 01       		.byte	0x1
 2688 03dd A9010000 		.4byte	.LASF32
 2689 03e1 03       		.byte	0x3
 2690 03e2 AE       		.byte	0xae
 2691 03e3 00000000 		.4byte	.LFB40
 2692 03e7 0E000000 		.4byte	.LFE40
 2693 03eb 3B020000 		.4byte	.LLST11
 2694 03ef 0D       		.uleb128 0xd
 2695 03f0 01       		.byte	0x1
 2696 03f1 10000000 		.4byte	.LASF33
 2697 03f5 03       		.byte	0x3
 2698 03f6 B7       		.byte	0xb7
 2699 03f7 00000000 		.4byte	.LFB41
 2700 03fb A4000000 		.4byte	.LFE41
 2701 03ff 66020000 		.4byte	.LLST12
 2702 0403 12       		.uleb128 0x12
 2703 0404 01       		.byte	0x1
 2704 0405 5F020000 		.4byte	.LASF54
 2705 0409 03       		.byte	0x3
 2706 040a CB       		.byte	0xcb
 2707 040b 01       		.byte	0x1
 2708 040c 00000000 		.4byte	.LFB42
 2709 0410 14000000 		.4byte	.LFE42
 2710 0414 91020000 		.4byte	.LLST13
 2711 0418 2B040000 		.4byte	0x42b
 2712 041c 13       		.uleb128 0x13
 2713 041d 7D010000 		.4byte	.LASF34
 2714 0421 03       		.byte	0x3
 2715 0422 CB       		.byte	0xcb
 2716 0423 76000000 		.4byte	0x76
 2717 0427 02       		.byte	0x2
 2718 0428 91       		.byte	0x91
 2719 0429 77       		.sleb128 -9
 2720 042a 00       		.byte	0x0
 2721 042b 0D       		.uleb128 0xd
 2722 042c 01       		.byte	0x1
 2723 042d 1D020000 		.4byte	.LASF35
ARM GAS  C:\DOCUME~1\student\LOCALS~1\Temp\ccTcJUb5.s 			page 56


 2724 0431 03       		.byte	0x3
 2725 0432 D5       		.byte	0xd5
 2726 0433 00000000 		.4byte	.LFB43
 2727 0437 7A000000 		.4byte	.LFE43
 2728 043b C8020000 		.4byte	.LLST14
 2729 043f 0D       		.uleb128 0xd
 2730 0440 01       		.byte	0x1
 2731 0441 CD000000 		.4byte	.LASF36
 2732 0445 03       		.byte	0x3
 2733 0446 E3       		.byte	0xe3
 2734 0447 00000000 		.4byte	.LFB44
 2735 044b 44000000 		.4byte	.LFE44
 2736 044f F3020000 		.4byte	.LLST15
 2737 0453 14       		.uleb128 0x14
 2738 0454 01       		.byte	0x1
 2739 0455 22000000 		.4byte	.LASF37
 2740 0459 03       		.byte	0x3
 2741 045a 0101     		.2byte	0x101
 2742 045c 00000000 		.4byte	.LFB45
 2743 0460 16000000 		.4byte	.LFE45
 2744 0464 1E030000 		.4byte	.LLST16
 2745 0468 15       		.uleb128 0x15
 2746 0469 52020000 		.4byte	.LASF38
 2747 046d 06       		.byte	0x6
 2748 046e CE06     		.2byte	0x6ce
 2749 0470 76040000 		.4byte	0x476
 2750 0474 01       		.byte	0x1
 2751 0475 01       		.byte	0x1
 2752 0476 16       		.uleb128 0x16
 2753 0477 61000000 		.4byte	0x61
 2754 047b 10       		.uleb128 0x10
 2755 047c 8F000000 		.4byte	0x8f
 2756 0480 8B040000 		.4byte	0x48b
 2757 0484 11       		.uleb128 0x11
 2758 0485 8C000000 		.4byte	0x8c
 2759 0489 7F       		.byte	0x7f
 2760 048a 00       		.byte	0x0
 2761 048b 17       		.uleb128 0x17
 2762 048c 6D6F6400 		.ascii	"mod\000"
 2763 0490 01       		.byte	0x1
 2764 0491 09       		.byte	0x9
 2765 0492 7B040000 		.4byte	0x47b
 2766 0496 01       		.byte	0x1
 2767 0497 05       		.byte	0x5
 2768 0498 03       		.byte	0x3
 2769 0499 00000000 		.4byte	mod
 2770 049d 18       		.uleb128 0x18
 2771 049e 93000000 		.4byte	.LASF39
 2772 04a2 01       		.byte	0x1
 2773 04a3 0A       		.byte	0xa
 2774 04a4 7B040000 		.4byte	0x47b
 2775 04a8 01       		.byte	0x1
 2776 04a9 05       		.byte	0x5
 2777 04aa 03       		.byte	0x3
 2778 04ab 00000000 		.4byte	data_re
 2779 04af 18       		.uleb128 0x18
 2780 04b0 3D020000 		.4byte	.LASF40
ARM GAS  C:\DOCUME~1\student\LOCALS~1\Temp\ccTcJUb5.s 			page 57


 2781 04b4 01       		.byte	0x1
 2782 04b5 0B       		.byte	0xb
 2783 04b6 7B040000 		.4byte	0x47b
 2784 04ba 01       		.byte	0x1
 2785 04bb 05       		.byte	0x5
 2786 04bc 03       		.byte	0x3
 2787 04bd 00000000 		.4byte	data_imm
 2788 04c1 10       		.uleb128 0x10
 2789 04c2 61000000 		.4byte	0x61
 2790 04c6 D1040000 		.4byte	0x4d1
 2791 04ca 11       		.uleb128 0x11
 2792 04cb 8C000000 		.4byte	0x8c
 2793 04cf 0F       		.byte	0xf
 2794 04d0 00       		.byte	0x0
 2795 04d1 18       		.uleb128 0x18
 2796 04d2 9B000000 		.4byte	.LASF41
 2797 04d6 01       		.byte	0x1
 2798 04d7 0D       		.byte	0xd
 2799 04d8 C1040000 		.4byte	0x4c1
 2800 04dc 01       		.byte	0x1
 2801 04dd 05       		.byte	0x5
 2802 04de 03       		.byte	0x3
 2803 04df 00000000 		.4byte	mod_avg
 2804 04e3 18       		.uleb128 0x18
 2805 04e4 ED000000 		.4byte	.LASF42
 2806 04e8 05       		.byte	0x5
 2807 04e9 04       		.byte	0x4
 2808 04ea F5040000 		.4byte	0x4f5
 2809 04ee 01       		.byte	0x1
 2810 04ef 05       		.byte	0x5
 2811 04f0 03       		.byte	0x3
 2812 04f1 00000000 		.4byte	BEAT_TIMEOUT_MILLS
 2813 04f5 19       		.uleb128 0x19
 2814 04f6 45000000 		.4byte	0x45
 2815 04fa 18       		.uleb128 0x18
 2816 04fb 3B000000 		.4byte	.LASF43
 2817 04ff 02       		.byte	0x2
 2818 0500 01       		.byte	0x1
 2819 0501 45000000 		.4byte	0x45
 2820 0505 01       		.byte	0x1
 2821 0506 05       		.byte	0x5
 2822 0507 03       		.byte	0x3
 2823 0508 00000000 		.4byte	currentTimeMills
 2824 050c 18       		.uleb128 0x18
 2825 050d 27000000 		.4byte	.LASF44
 2826 0511 03       		.byte	0x3
 2827 0512 0F       		.byte	0xf
 2828 0513 81000000 		.4byte	0x81
 2829 0517 01       		.byte	0x1
 2830 0518 05       		.byte	0x5
 2831 0519 03       		.byte	0x3
 2832 051a 00000000 		.4byte	adcResult
 2833 051e 17       		.uleb128 0x17
 2834 051f 6D617800 		.ascii	"max\000"
 2835 0523 03       		.byte	0x3
 2836 0524 11       		.byte	0x11
 2837 0525 8F000000 		.4byte	0x8f
ARM GAS  C:\DOCUME~1\student\LOCALS~1\Temp\ccTcJUb5.s 			page 58


 2838 0529 01       		.byte	0x1
 2839 052a 05       		.byte	0x5
 2840 052b 03       		.byte	0x3
 2841 052c 00000000 		.4byte	max
 2842 0530 18       		.uleb128 0x18
 2843 0531 6D020000 		.4byte	.LASF45
 2844 0535 03       		.byte	0x3
 2845 0536 11       		.byte	0x11
 2846 0537 8F000000 		.4byte	0x8f
 2847 053b 01       		.byte	0x1
 2848 053c 05       		.byte	0x5
 2849 053d 03       		.byte	0x3
 2850 053e 00000000 		.4byte	zero
 2851 0542 18       		.uleb128 0x18
 2852 0543 BA010000 		.4byte	.LASF46
 2853 0547 03       		.byte	0x3
 2854 0548 12       		.byte	0x12
 2855 0549 68000000 		.4byte	0x68
 2856 054d 01       		.byte	0x1
 2857 054e 05       		.byte	0x5
 2858 054f 03       		.byte	0x3
 2859 0550 00000000 		.4byte	global_i
 2860 0554 17       		.uleb128 0x17
 2861 0555 696E6400 		.ascii	"ind\000"
 2862 0559 03       		.byte	0x3
 2863 055a 13       		.byte	0x13
 2864 055b 68000000 		.4byte	0x68
 2865 055f 01       		.byte	0x1
 2866 0560 05       		.byte	0x5
 2867 0561 03       		.byte	0x3
 2868 0562 00000000 		.4byte	ind
 2869 0566 18       		.uleb128 0x18
 2870 0567 7B000000 		.4byte	.LASF47
 2871 056b 03       		.byte	0x3
 2872 056c 14       		.byte	0x14
 2873 056d 68000000 		.4byte	0x68
 2874 0571 01       		.byte	0x1
 2875 0572 05       		.byte	0x5
 2876 0573 03       		.byte	0x3
 2877 0574 00000000 		.4byte	endl
 2878 0578 18       		.uleb128 0x18
 2879 0579 4D010000 		.4byte	.LASF48
 2880 057d 03       		.byte	0x3
 2881 057e 19       		.byte	0x19
 2882 057f EC000000 		.4byte	0xec
 2883 0583 01       		.byte	0x1
 2884 0584 05       		.byte	0x5
 2885 0585 03       		.byte	0x3
 2886 0586 00000000 		.4byte	beat1
 2887 058a 18       		.uleb128 0x18
 2888 058b 53010000 		.4byte	.LASF49
 2889 058f 03       		.byte	0x3
 2890 0590 19       		.byte	0x19
 2891 0591 EC000000 		.4byte	0xec
 2892 0595 01       		.byte	0x1
 2893 0596 05       		.byte	0x5
 2894 0597 03       		.byte	0x3
ARM GAS  C:\DOCUME~1\student\LOCALS~1\Temp\ccTcJUb5.s 			page 59


 2895 0598 00000000 		.4byte	beat2
 2896 059c 00       		.byte	0x0
 2897              		.section	.debug_abbrev
 2898 0000 01       		.uleb128 0x1
 2899 0001 11       		.uleb128 0x11
 2900 0002 01       		.byte	0x1
 2901 0003 25       		.uleb128 0x25
 2902 0004 0E       		.uleb128 0xe
 2903 0005 13       		.uleb128 0x13
 2904 0006 0B       		.uleb128 0xb
 2905 0007 03       		.uleb128 0x3
 2906 0008 0E       		.uleb128 0xe
 2907 0009 1B       		.uleb128 0x1b
 2908 000a 0E       		.uleb128 0xe
 2909 000b 11       		.uleb128 0x11
 2910 000c 01       		.uleb128 0x1
 2911 000d 52       		.uleb128 0x52
 2912 000e 01       		.uleb128 0x1
 2913 000f 55       		.uleb128 0x55
 2914 0010 06       		.uleb128 0x6
 2915 0011 10       		.uleb128 0x10
 2916 0012 06       		.uleb128 0x6
 2917 0013 00       		.byte	0x0
 2918 0014 00       		.byte	0x0
 2919 0015 02       		.uleb128 0x2
 2920 0016 24       		.uleb128 0x24
 2921 0017 00       		.byte	0x0
 2922 0018 0B       		.uleb128 0xb
 2923 0019 0B       		.uleb128 0xb
 2924 001a 3E       		.uleb128 0x3e
 2925 001b 0B       		.uleb128 0xb
 2926 001c 03       		.uleb128 0x3
 2927 001d 0E       		.uleb128 0xe
 2928 001e 00       		.byte	0x0
 2929 001f 00       		.byte	0x0
 2930 0020 03       		.uleb128 0x3
 2931 0021 24       		.uleb128 0x24
 2932 0022 00       		.byte	0x0
 2933 0023 0B       		.uleb128 0xb
 2934 0024 0B       		.uleb128 0xb
 2935 0025 3E       		.uleb128 0x3e
 2936 0026 0B       		.uleb128 0xb
 2937 0027 03       		.uleb128 0x3
 2938 0028 08       		.uleb128 0x8
 2939 0029 00       		.byte	0x0
 2940 002a 00       		.byte	0x0
 2941 002b 04       		.uleb128 0x4
 2942 002c 16       		.uleb128 0x16
 2943 002d 00       		.byte	0x0
 2944 002e 03       		.uleb128 0x3
 2945 002f 0E       		.uleb128 0xe
 2946 0030 3A       		.uleb128 0x3a
 2947 0031 0B       		.uleb128 0xb
 2948 0032 3B       		.uleb128 0x3b
 2949 0033 0B       		.uleb128 0xb
 2950 0034 49       		.uleb128 0x49
 2951 0035 13       		.uleb128 0x13
ARM GAS  C:\DOCUME~1\student\LOCALS~1\Temp\ccTcJUb5.s 			page 60


 2952 0036 00       		.byte	0x0
 2953 0037 00       		.byte	0x0
 2954 0038 05       		.uleb128 0x5
 2955 0039 24       		.uleb128 0x24
 2956 003a 00       		.byte	0x0
 2957 003b 0B       		.uleb128 0xb
 2958 003c 0B       		.uleb128 0xb
 2959 003d 3E       		.uleb128 0x3e
 2960 003e 0B       		.uleb128 0xb
 2961 003f 00       		.byte	0x0
 2962 0040 00       		.byte	0x0
 2963 0041 06       		.uleb128 0x6
 2964 0042 13       		.uleb128 0x13
 2965 0043 01       		.byte	0x1
 2966 0044 0B       		.uleb128 0xb
 2967 0045 0B       		.uleb128 0xb
 2968 0046 3A       		.uleb128 0x3a
 2969 0047 0B       		.uleb128 0xb
 2970 0048 3B       		.uleb128 0x3b
 2971 0049 0B       		.uleb128 0xb
 2972 004a 01       		.uleb128 0x1
 2973 004b 13       		.uleb128 0x13
 2974 004c 00       		.byte	0x0
 2975 004d 00       		.byte	0x0
 2976 004e 07       		.uleb128 0x7
 2977 004f 0D       		.uleb128 0xd
 2978 0050 00       		.byte	0x0
 2979 0051 03       		.uleb128 0x3
 2980 0052 0E       		.uleb128 0xe
 2981 0053 3A       		.uleb128 0x3a
 2982 0054 0B       		.uleb128 0xb
 2983 0055 3B       		.uleb128 0x3b
 2984 0056 0B       		.uleb128 0xb
 2985 0057 49       		.uleb128 0x49
 2986 0058 13       		.uleb128 0x13
 2987 0059 38       		.uleb128 0x38
 2988 005a 0A       		.uleb128 0xa
 2989 005b 00       		.byte	0x0
 2990 005c 00       		.byte	0x0
 2991 005d 08       		.uleb128 0x8
 2992 005e 2E       		.uleb128 0x2e
 2993 005f 01       		.byte	0x1
 2994 0060 3F       		.uleb128 0x3f
 2995 0061 0C       		.uleb128 0xc
 2996 0062 03       		.uleb128 0x3
 2997 0063 08       		.uleb128 0x8
 2998 0064 3A       		.uleb128 0x3a
 2999 0065 0B       		.uleb128 0xb
 3000 0066 3B       		.uleb128 0x3b
 3001 0067 0B       		.uleb128 0xb
 3002 0068 27       		.uleb128 0x27
 3003 0069 0C       		.uleb128 0xc
 3004 006a 49       		.uleb128 0x49
 3005 006b 13       		.uleb128 0x13
 3006 006c 11       		.uleb128 0x11
 3007 006d 01       		.uleb128 0x1
 3008 006e 12       		.uleb128 0x12
ARM GAS  C:\DOCUME~1\student\LOCALS~1\Temp\ccTcJUb5.s 			page 61


 3009 006f 01       		.uleb128 0x1
 3010 0070 40       		.uleb128 0x40
 3011 0071 06       		.uleb128 0x6
 3012 0072 01       		.uleb128 0x1
 3013 0073 13       		.uleb128 0x13
 3014 0074 00       		.byte	0x0
 3015 0075 00       		.byte	0x0
 3016 0076 09       		.uleb128 0x9
 3017 0077 05       		.uleb128 0x5
 3018 0078 00       		.byte	0x0
 3019 0079 03       		.uleb128 0x3
 3020 007a 08       		.uleb128 0x8
 3021 007b 3A       		.uleb128 0x3a
 3022 007c 0B       		.uleb128 0xb
 3023 007d 3B       		.uleb128 0x3b
 3024 007e 0B       		.uleb128 0xb
 3025 007f 49       		.uleb128 0x49
 3026 0080 13       		.uleb128 0x13
 3027 0081 02       		.uleb128 0x2
 3028 0082 0A       		.uleb128 0xa
 3029 0083 00       		.byte	0x0
 3030 0084 00       		.byte	0x0
 3031 0085 0A       		.uleb128 0xa
 3032 0086 34       		.uleb128 0x34
 3033 0087 00       		.byte	0x0
 3034 0088 03       		.uleb128 0x3
 3035 0089 08       		.uleb128 0x8
 3036 008a 3A       		.uleb128 0x3a
 3037 008b 0B       		.uleb128 0xb
 3038 008c 3B       		.uleb128 0x3b
 3039 008d 0B       		.uleb128 0xb
 3040 008e 49       		.uleb128 0x49
 3041 008f 13       		.uleb128 0x13
 3042 0090 02       		.uleb128 0x2
 3043 0091 0A       		.uleb128 0xa
 3044 0092 00       		.byte	0x0
 3045 0093 00       		.byte	0x0
 3046 0094 0B       		.uleb128 0xb
 3047 0095 0F       		.uleb128 0xf
 3048 0096 00       		.byte	0x0
 3049 0097 0B       		.uleb128 0xb
 3050 0098 0B       		.uleb128 0xb
 3051 0099 49       		.uleb128 0x49
 3052 009a 13       		.uleb128 0x13
 3053 009b 00       		.byte	0x0
 3054 009c 00       		.byte	0x0
 3055 009d 0C       		.uleb128 0xc
 3056 009e 2E       		.uleb128 0x2e
 3057 009f 01       		.byte	0x1
 3058 00a0 3F       		.uleb128 0x3f
 3059 00a1 0C       		.uleb128 0xc
 3060 00a2 03       		.uleb128 0x3
 3061 00a3 0E       		.uleb128 0xe
 3062 00a4 3A       		.uleb128 0x3a
 3063 00a5 0B       		.uleb128 0xb
 3064 00a6 3B       		.uleb128 0x3b
 3065 00a7 0B       		.uleb128 0xb
ARM GAS  C:\DOCUME~1\student\LOCALS~1\Temp\ccTcJUb5.s 			page 62


 3066 00a8 11       		.uleb128 0x11
 3067 00a9 01       		.uleb128 0x1
 3068 00aa 12       		.uleb128 0x12
 3069 00ab 01       		.uleb128 0x1
 3070 00ac 40       		.uleb128 0x40
 3071 00ad 06       		.uleb128 0x6
 3072 00ae 01       		.uleb128 0x1
 3073 00af 13       		.uleb128 0x13
 3074 00b0 00       		.byte	0x0
 3075 00b1 00       		.byte	0x0
 3076 00b2 0D       		.uleb128 0xd
 3077 00b3 2E       		.uleb128 0x2e
 3078 00b4 00       		.byte	0x0
 3079 00b5 3F       		.uleb128 0x3f
 3080 00b6 0C       		.uleb128 0xc
 3081 00b7 03       		.uleb128 0x3
 3082 00b8 0E       		.uleb128 0xe
 3083 00b9 3A       		.uleb128 0x3a
 3084 00ba 0B       		.uleb128 0xb
 3085 00bb 3B       		.uleb128 0x3b
 3086 00bc 0B       		.uleb128 0xb
 3087 00bd 11       		.uleb128 0x11
 3088 00be 01       		.uleb128 0x1
 3089 00bf 12       		.uleb128 0x12
 3090 00c0 01       		.uleb128 0x1
 3091 00c1 40       		.uleb128 0x40
 3092 00c2 06       		.uleb128 0x6
 3093 00c3 00       		.byte	0x0
 3094 00c4 00       		.byte	0x0
 3095 00c5 0E       		.uleb128 0xe
 3096 00c6 2E       		.uleb128 0x2e
 3097 00c7 00       		.byte	0x0
 3098 00c8 3F       		.uleb128 0x3f
 3099 00c9 0C       		.uleb128 0xc
 3100 00ca 03       		.uleb128 0x3
 3101 00cb 0E       		.uleb128 0xe
 3102 00cc 3A       		.uleb128 0x3a
 3103 00cd 0B       		.uleb128 0xb
 3104 00ce 3B       		.uleb128 0x3b
 3105 00cf 0B       		.uleb128 0xb
 3106 00d0 49       		.uleb128 0x49
 3107 00d1 13       		.uleb128 0x13
 3108 00d2 11       		.uleb128 0x11
 3109 00d3 01       		.uleb128 0x1
 3110 00d4 12       		.uleb128 0x12
 3111 00d5 01       		.uleb128 0x1
 3112 00d6 40       		.uleb128 0x40
 3113 00d7 06       		.uleb128 0x6
 3114 00d8 00       		.byte	0x0
 3115 00d9 00       		.byte	0x0
 3116 00da 0F       		.uleb128 0xf
 3117 00db 34       		.uleb128 0x34
 3118 00dc 00       		.byte	0x0
 3119 00dd 03       		.uleb128 0x3
 3120 00de 0E       		.uleb128 0xe
 3121 00df 3A       		.uleb128 0x3a
 3122 00e0 0B       		.uleb128 0xb
ARM GAS  C:\DOCUME~1\student\LOCALS~1\Temp\ccTcJUb5.s 			page 63


 3123 00e1 3B       		.uleb128 0x3b
 3124 00e2 0B       		.uleb128 0xb
 3125 00e3 49       		.uleb128 0x49
 3126 00e4 13       		.uleb128 0x13
 3127 00e5 02       		.uleb128 0x2
 3128 00e6 0A       		.uleb128 0xa
 3129 00e7 00       		.byte	0x0
 3130 00e8 00       		.byte	0x0
 3131 00e9 10       		.uleb128 0x10
 3132 00ea 01       		.uleb128 0x1
 3133 00eb 01       		.byte	0x1
 3134 00ec 49       		.uleb128 0x49
 3135 00ed 13       		.uleb128 0x13
 3136 00ee 01       		.uleb128 0x1
 3137 00ef 13       		.uleb128 0x13
 3138 00f0 00       		.byte	0x0
 3139 00f1 00       		.byte	0x0
 3140 00f2 11       		.uleb128 0x11
 3141 00f3 21       		.uleb128 0x21
 3142 00f4 00       		.byte	0x0
 3143 00f5 49       		.uleb128 0x49
 3144 00f6 13       		.uleb128 0x13
 3145 00f7 2F       		.uleb128 0x2f
 3146 00f8 0B       		.uleb128 0xb
 3147 00f9 00       		.byte	0x0
 3148 00fa 00       		.byte	0x0
 3149 00fb 12       		.uleb128 0x12
 3150 00fc 2E       		.uleb128 0x2e
 3151 00fd 01       		.byte	0x1
 3152 00fe 3F       		.uleb128 0x3f
 3153 00ff 0C       		.uleb128 0xc
 3154 0100 03       		.uleb128 0x3
 3155 0101 0E       		.uleb128 0xe
 3156 0102 3A       		.uleb128 0x3a
 3157 0103 0B       		.uleb128 0xb
 3158 0104 3B       		.uleb128 0x3b
 3159 0105 0B       		.uleb128 0xb
 3160 0106 27       		.uleb128 0x27
 3161 0107 0C       		.uleb128 0xc
 3162 0108 11       		.uleb128 0x11
 3163 0109 01       		.uleb128 0x1
 3164 010a 12       		.uleb128 0x12
 3165 010b 01       		.uleb128 0x1
 3166 010c 40       		.uleb128 0x40
 3167 010d 06       		.uleb128 0x6
 3168 010e 01       		.uleb128 0x1
 3169 010f 13       		.uleb128 0x13
 3170 0110 00       		.byte	0x0
 3171 0111 00       		.byte	0x0
 3172 0112 13       		.uleb128 0x13
 3173 0113 05       		.uleb128 0x5
 3174 0114 00       		.byte	0x0
 3175 0115 03       		.uleb128 0x3
 3176 0116 0E       		.uleb128 0xe
 3177 0117 3A       		.uleb128 0x3a
 3178 0118 0B       		.uleb128 0xb
 3179 0119 3B       		.uleb128 0x3b
ARM GAS  C:\DOCUME~1\student\LOCALS~1\Temp\ccTcJUb5.s 			page 64


 3180 011a 0B       		.uleb128 0xb
 3181 011b 49       		.uleb128 0x49
 3182 011c 13       		.uleb128 0x13
 3183 011d 02       		.uleb128 0x2
 3184 011e 0A       		.uleb128 0xa
 3185 011f 00       		.byte	0x0
 3186 0120 00       		.byte	0x0
 3187 0121 14       		.uleb128 0x14
 3188 0122 2E       		.uleb128 0x2e
 3189 0123 00       		.byte	0x0
 3190 0124 3F       		.uleb128 0x3f
 3191 0125 0C       		.uleb128 0xc
 3192 0126 03       		.uleb128 0x3
 3193 0127 0E       		.uleb128 0xe
 3194 0128 3A       		.uleb128 0x3a
 3195 0129 0B       		.uleb128 0xb
 3196 012a 3B       		.uleb128 0x3b
 3197 012b 05       		.uleb128 0x5
 3198 012c 11       		.uleb128 0x11
 3199 012d 01       		.uleb128 0x1
 3200 012e 12       		.uleb128 0x12
 3201 012f 01       		.uleb128 0x1
 3202 0130 40       		.uleb128 0x40
 3203 0131 06       		.uleb128 0x6
 3204 0132 00       		.byte	0x0
 3205 0133 00       		.byte	0x0
 3206 0134 15       		.uleb128 0x15
 3207 0135 34       		.uleb128 0x34
 3208 0136 00       		.byte	0x0
 3209 0137 03       		.uleb128 0x3
 3210 0138 0E       		.uleb128 0xe
 3211 0139 3A       		.uleb128 0x3a
 3212 013a 0B       		.uleb128 0xb
 3213 013b 3B       		.uleb128 0x3b
 3214 013c 05       		.uleb128 0x5
 3215 013d 49       		.uleb128 0x49
 3216 013e 13       		.uleb128 0x13
 3217 013f 3F       		.uleb128 0x3f
 3218 0140 0C       		.uleb128 0xc
 3219 0141 3C       		.uleb128 0x3c
 3220 0142 0C       		.uleb128 0xc
 3221 0143 00       		.byte	0x0
 3222 0144 00       		.byte	0x0
 3223 0145 16       		.uleb128 0x16
 3224 0146 35       		.uleb128 0x35
 3225 0147 00       		.byte	0x0
 3226 0148 49       		.uleb128 0x49
 3227 0149 13       		.uleb128 0x13
 3228 014a 00       		.byte	0x0
 3229 014b 00       		.byte	0x0
 3230 014c 17       		.uleb128 0x17
 3231 014d 34       		.uleb128 0x34
 3232 014e 00       		.byte	0x0
 3233 014f 03       		.uleb128 0x3
 3234 0150 08       		.uleb128 0x8
 3235 0151 3A       		.uleb128 0x3a
 3236 0152 0B       		.uleb128 0xb
ARM GAS  C:\DOCUME~1\student\LOCALS~1\Temp\ccTcJUb5.s 			page 65


 3237 0153 3B       		.uleb128 0x3b
 3238 0154 0B       		.uleb128 0xb
 3239 0155 49       		.uleb128 0x49
 3240 0156 13       		.uleb128 0x13
 3241 0157 3F       		.uleb128 0x3f
 3242 0158 0C       		.uleb128 0xc
 3243 0159 02       		.uleb128 0x2
 3244 015a 0A       		.uleb128 0xa
 3245 015b 00       		.byte	0x0
 3246 015c 00       		.byte	0x0
 3247 015d 18       		.uleb128 0x18
 3248 015e 34       		.uleb128 0x34
 3249 015f 00       		.byte	0x0
 3250 0160 03       		.uleb128 0x3
 3251 0161 0E       		.uleb128 0xe
 3252 0162 3A       		.uleb128 0x3a
 3253 0163 0B       		.uleb128 0xb
 3254 0164 3B       		.uleb128 0x3b
 3255 0165 0B       		.uleb128 0xb
 3256 0166 49       		.uleb128 0x49
 3257 0167 13       		.uleb128 0x13
 3258 0168 3F       		.uleb128 0x3f
 3259 0169 0C       		.uleb128 0xc
 3260 016a 02       		.uleb128 0x2
 3261 016b 0A       		.uleb128 0xa
 3262 016c 00       		.byte	0x0
 3263 016d 00       		.byte	0x0
 3264 016e 19       		.uleb128 0x19
 3265 016f 26       		.uleb128 0x26
 3266 0170 00       		.byte	0x0
 3267 0171 49       		.uleb128 0x49
 3268 0172 13       		.uleb128 0x13
 3269 0173 00       		.byte	0x0
 3270 0174 00       		.byte	0x0
 3271 0175 00       		.byte	0x0
 3272              		.section	.debug_pubnames,"",%progbits
 3273 0000 D7010000 		.4byte	0x1d7
 3274 0004 0200     		.2byte	0x2
 3275 0006 00000000 		.4byte	.Ldebug_info0
 3276 000a 9D050000 		.4byte	0x59d
 3277 000e F7000000 		.4byte	0xf7
 3278 0012 46465400 		.ascii	"FFT\000"
 3279 0016 42020000 		.4byte	0x242
 3280 001a 52657365 		.ascii	"ResetFFT\000"
 3280      74464654 
 3280      00
 3281 0023 67020000 		.4byte	0x267
 3282 0027 46465441 		.ascii	"FFTAVG\000"
 3282      564700
 3283 002e 98020000 		.4byte	0x298
 3284 0032 75706461 		.ascii	"updateCurrentTimeMills\000"
 3284      74654375 
 3284      7272656E 
 3284      7454696D 
 3284      654D696C 
 3285 0049 AC020000 		.4byte	0x2ac
 3286 004d 67657443 		.ascii	"getCurrentTimeMills\000"
ARM GAS  C:\DOCUME~1\student\LOCALS~1\Temp\ccTcJUb5.s 			page 66


 3286      75727265 
 3286      6E745469 
 3286      6D654D69 
 3286      6C6C7300 
 3287 0061 C4020000 		.4byte	0x2c4
 3288 0065 55415254 		.ascii	"UARTPrintMod\000"
 3288      5072696E 
 3288      744D6F64 
 3288      00
 3289 0072 07030000 		.4byte	0x307
 3290 0076 55415254 		.ascii	"UARTPrintModAvg\000"
 3290      5072696E 
 3290      744D6F64 
 3290      41766700 
 3291 0086 3A030000 		.4byte	0x33a
 3292 008a 55415254 		.ascii	"UARTPrintFFTBeatInfo\000"
 3292      5072696E 
 3292      74464654 
 3292      42656174 
 3292      496E666F 
 3293 009f 6D030000 		.4byte	0x36d
 3294 00a3 55415254 		.ascii	"UARTPrintFFTBeatInfo8051\000"
 3294      5072696E 
 3294      74464654 
 3294      42656174 
 3294      496E666F 
 3295 00bc A0030000 		.4byte	0x3a0
 3296 00c0 6D61696E 		.ascii	"main\000"
 3296      00
 3297 00c5 B4030000 		.4byte	0x3b4
 3298 00c9 50726F63 		.ascii	"ProcessBeats\000"
 3298      65737342 
 3298      65617473 
 3298      00
 3299 00d6 DB030000 		.4byte	0x3db
 3300 00da 50726F63 		.ascii	"ProcessFFT\000"
 3300      65737346 
 3300      465400
 3301 00e5 EF030000 		.4byte	0x3ef
 3302 00e9 43616C63 		.ascii	"CalculateFFT\000"
 3302      756C6174 
 3302      65464654 
 3302      00
 3303 00f6 03040000 		.4byte	0x403
 3304 00fa 50726F63 		.ascii	"ProcessUARTRX\000"
 3304      65737355 
 3304      41525452 
 3304      5800
 3305 0108 2B040000 		.4byte	0x42b
 3306 010c 496E6974 		.ascii	"InitBeatStates\000"
 3306      42656174 
 3306      53746174 
 3306      657300
 3307 011b 3F040000 		.4byte	0x43f
 3308 011f 496E6974 		.ascii	"Init\000"
 3308      00
 3309 0124 53040000 		.4byte	0x453
ARM GAS  C:\DOCUME~1\student\LOCALS~1\Temp\ccTcJUb5.s 			page 67


 3310 0128 43726C66 		.ascii	"Crlf\000"
 3310      00
 3311 012d 8B040000 		.4byte	0x48b
 3312 0131 6D6F6400 		.ascii	"mod\000"
 3313 0135 9D040000 		.4byte	0x49d
 3314 0139 64617461 		.ascii	"data_re\000"
 3314      5F726500 
 3315 0141 AF040000 		.4byte	0x4af
 3316 0145 64617461 		.ascii	"data_imm\000"
 3316      5F696D6D 
 3316      00
 3317 014e D1040000 		.4byte	0x4d1
 3318 0152 6D6F645F 		.ascii	"mod_avg\000"
 3318      61766700 
 3319 015a E3040000 		.4byte	0x4e3
 3320 015e 42454154 		.ascii	"BEAT_TIMEOUT_MILLS\000"
 3320      5F54494D 
 3320      454F5554 
 3320      5F4D494C 
 3320      4C5300
 3321 0171 FA040000 		.4byte	0x4fa
 3322 0175 63757272 		.ascii	"currentTimeMills\000"
 3322      656E7454 
 3322      696D654D 
 3322      696C6C73 
 3322      00
 3323 0186 0C050000 		.4byte	0x50c
 3324 018a 61646352 		.ascii	"adcResult\000"
 3324      6573756C 
 3324      7400
 3325 0194 1E050000 		.4byte	0x51e
 3326 0198 6D617800 		.ascii	"max\000"
 3327 019c 30050000 		.4byte	0x530
 3328 01a0 7A65726F 		.ascii	"zero\000"
 3328      00
 3329 01a5 42050000 		.4byte	0x542
 3330 01a9 676C6F62 		.ascii	"global_i\000"
 3330      616C5F69 
 3330      00
 3331 01b2 54050000 		.4byte	0x554
 3332 01b6 696E6400 		.ascii	"ind\000"
 3333 01ba 66050000 		.4byte	0x566
 3334 01be 656E646C 		.ascii	"endl\000"
 3334      00
 3335 01c3 78050000 		.4byte	0x578
 3336 01c7 62656174 		.ascii	"beat1\000"
 3336      3100
 3337 01cd 8A050000 		.4byte	0x58a
 3338 01d1 62656174 		.ascii	"beat2\000"
 3338      3200
 3339 01d7 00000000 		.4byte	0x0
 3340              		.section	.debug_aranges,"",%progbits
 3341 0000 9C000000 		.4byte	0x9c
 3342 0004 0200     		.2byte	0x2
 3343 0006 00000000 		.4byte	.Ldebug_info0
 3344 000a 04       		.byte	0x4
 3345 000b 00       		.byte	0x0
ARM GAS  C:\DOCUME~1\student\LOCALS~1\Temp\ccTcJUb5.s 			page 68


 3346 000c 0000     		.2byte	0x0
 3347 000e 0000     		.2byte	0x0
 3348 0010 00000000 		.4byte	.LFB29
 3349 0014 56050000 		.4byte	.LFE29-.LFB29
 3350 0018 00000000 		.4byte	.LFB30
 3351 001c 80000000 		.4byte	.LFE30-.LFB30
 3352 0020 00000000 		.4byte	.LFB31
 3353 0024 16010000 		.4byte	.LFE31-.LFB31
 3354 0028 00000000 		.4byte	.LFB32
 3355 002c 22000000 		.4byte	.LFE32-.LFB32
 3356 0030 00000000 		.4byte	.LFB33
 3357 0034 16000000 		.4byte	.LFE33-.LFB33
 3358 0038 00000000 		.4byte	.LFB34
 3359 003c 64000000 		.4byte	.LFE34-.LFB34
 3360 0040 00000000 		.4byte	.LFB35
 3361 0044 54000000 		.4byte	.LFE35-.LFB35
 3362 0048 00000000 		.4byte	.LFB36
 3363 004c F2000000 		.4byte	.LFE36-.LFB36
 3364 0050 00000000 		.4byte	.LFB37
 3365 0054 D6000000 		.4byte	.LFE37-.LFB37
 3366 0058 00000000 		.4byte	.LFB38
 3367 005c 0A000000 		.4byte	.LFE38-.LFB38
 3368 0060 00000000 		.4byte	.LFB39
 3369 0064 22010000 		.4byte	.LFE39-.LFB39
 3370 0068 00000000 		.4byte	.LFB40
 3371 006c 0E000000 		.4byte	.LFE40-.LFB40
 3372 0070 00000000 		.4byte	.LFB41
 3373 0074 A4000000 		.4byte	.LFE41-.LFB41
 3374 0078 00000000 		.4byte	.LFB42
 3375 007c 14000000 		.4byte	.LFE42-.LFB42
 3376 0080 00000000 		.4byte	.LFB43
 3377 0084 7A000000 		.4byte	.LFE43-.LFB43
 3378 0088 00000000 		.4byte	.LFB44
 3379 008c 44000000 		.4byte	.LFE44-.LFB44
 3380 0090 00000000 		.4byte	.LFB45
 3381 0094 16000000 		.4byte	.LFE45-.LFB45
 3382 0098 00000000 		.4byte	0x0
 3383 009c 00000000 		.4byte	0x0
 3384              		.section	.debug_ranges,"",%progbits
 3385              	.Ldebug_ranges0:
 3386 0000 00000000 		.4byte	.Ltext0
 3387 0004 00000000 		.4byte	.Letext0
 3388 0008 00000000 		.4byte	.LFB29
 3389 000c 56050000 		.4byte	.LFE29
 3390 0010 00000000 		.4byte	.LFB30
 3391 0014 80000000 		.4byte	.LFE30
 3392 0018 00000000 		.4byte	.LFB31
 3393 001c 16010000 		.4byte	.LFE31
 3394 0020 00000000 		.4byte	.LFB32
 3395 0024 22000000 		.4byte	.LFE32
 3396 0028 00000000 		.4byte	.LFB33
 3397 002c 16000000 		.4byte	.LFE33
 3398 0030 00000000 		.4byte	.LFB34
 3399 0034 64000000 		.4byte	.LFE34
 3400 0038 00000000 		.4byte	.LFB35
 3401 003c 54000000 		.4byte	.LFE35
 3402 0040 00000000 		.4byte	.LFB36
ARM GAS  C:\DOCUME~1\student\LOCALS~1\Temp\ccTcJUb5.s 			page 69


 3403 0044 F2000000 		.4byte	.LFE36
 3404 0048 00000000 		.4byte	.LFB37
 3405 004c D6000000 		.4byte	.LFE37
 3406 0050 00000000 		.4byte	.LFB38
 3407 0054 0A000000 		.4byte	.LFE38
 3408 0058 00000000 		.4byte	.LFB39
 3409 005c 22010000 		.4byte	.LFE39
 3410 0060 00000000 		.4byte	.LFB40
 3411 0064 0E000000 		.4byte	.LFE40
 3412 0068 00000000 		.4byte	.LFB41
 3413 006c A4000000 		.4byte	.LFE41
 3414 0070 00000000 		.4byte	.LFB42
 3415 0074 14000000 		.4byte	.LFE42
 3416 0078 00000000 		.4byte	.LFB43
 3417 007c 7A000000 		.4byte	.LFE43
 3418 0080 00000000 		.4byte	.LFB44
 3419 0084 44000000 		.4byte	.LFE44
 3420 0088 00000000 		.4byte	.LFB45
 3421 008c 16000000 		.4byte	.LFE45
 3422 0090 00000000 		.4byte	0x0
 3423 0094 00000000 		.4byte	0x0
 3424              		.section	.debug_str,"MS",%progbits,1
 3425              	.LASF25:
 3426 0000 55415254 		.ascii	"UARTPrintModAvg\000"
 3426      5072696E 
 3426      744D6F64 
 3426      41766700 
 3427              	.LASF33:
 3428 0010 43616C63 		.ascii	"CalculateFFT\000"
 3428      756C6174 
 3428      65464654 
 3428      00
 3429              	.LASF31:
 3430 001d 64696666 		.ascii	"diff\000"
 3430      00
 3431              	.LASF37:
 3432 0022 43726C66 		.ascii	"Crlf\000"
 3432      00
 3433              	.LASF44:
 3434 0027 61646352 		.ascii	"adcResult\000"
 3434      6573756C 
 3434      7400
 3435              	.LASF2:
 3436 0031 73686F72 		.ascii	"short int\000"
 3436      7420696E 
 3436      7400
 3437              	.LASF43:
 3438 003b 63757272 		.ascii	"currentTimeMills\000"
 3438      656E7454 
 3438      696D654D 
 3438      696C6C73 
 3438      00
 3439              	.LASF14:
 3440 004c 6C6F6E67 		.ascii	"long double\000"
 3440      20646F75 
 3440      626C6500 
 3441              	.LASF26:
ARM GAS  C:\DOCUME~1\student\LOCALS~1\Temp\ccTcJUb5.s 			page 70


 3442 0058 55415254 		.ascii	"UARTPrintFFTBeatInfo\000"
 3442      5072696E 
 3442      74464654 
 3442      42656174 
 3442      496E666F 
 3443              	.LASF18:
 3444 006d 69734265 		.ascii	"isBeat\000"
 3444      617400
 3445              	.LASF11:
 3446 0074 75696E74 		.ascii	"uint16\000"
 3446      313600
 3447              	.LASF47:
 3448 007b 656E646C 		.ascii	"endl\000"
 3448      00
 3449              	.LASF23:
 3450 0080 55415254 		.ascii	"UARTPrintMod\000"
 3450      5072696E 
 3450      744D6F64 
 3450      00
 3451              	.LASF10:
 3452 008d 75696E74 		.ascii	"uint8\000"
 3452      3800
 3453              	.LASF39:
 3454 0093 64617461 		.ascii	"data_re\000"
 3454      5F726500 
 3455              	.LASF41:
 3456 009b 6D6F645F 		.ascii	"mod_avg\000"
 3456      61766700 
 3457              	.LASF0:
 3458 00a3 7369676E 		.ascii	"signed char\000"
 3458      65642063 
 3458      68617200 
 3459              	.LASF13:
 3460 00af 666C6F61 		.ascii	"float\000"
 3460      7400
 3461              	.LASF6:
 3462 00b5 6C6F6E67 		.ascii	"long long int\000"
 3462      206C6F6E 
 3462      6720696E 
 3462      7400
 3463              	.LASF17:
 3464 00c3 74687265 		.ascii	"threshold\000"
 3464      73686F6C 
 3464      6400
 3465              	.LASF36:
 3466 00cd 496E6974 		.ascii	"Init\000"
 3466      00
 3467              	.LASF22:
 3468 00d2 46465441 		.ascii	"FFTAVG\000"
 3468      564700
 3469              	.LASF53:
 3470 00d9 67657443 		.ascii	"getCurrentTimeMills\000"
 3470      75727265 
 3470      6E745469 
 3470      6D654D69 
 3470      6C6C7300 
 3471              	.LASF42:
ARM GAS  C:\DOCUME~1\student\LOCALS~1\Temp\ccTcJUb5.s 			page 71


 3472 00ed 42454154 		.ascii	"BEAT_TIMEOUT_MILLS\000"
 3472      5F54494D 
 3472      454F5554 
 3472      5F4D494C 
 3472      4C5300
 3473              	.LASF27:
 3474 0100 55415254 		.ascii	"UARTPrintFFTBeatInfo8051\000"
 3474      5072696E 
 3474      74464654 
 3474      42656174 
 3474      496E666F 
 3475              	.LASF52:
 3476 0119 453A5C36 		.ascii	"E:\\6.115\\FFT\\RS232.cydsn\000"
 3476      2E313135 
 3476      5C464654 
 3476      5C525332 
 3476      33322E63 
 3477              	.LASF1:
 3478 0132 756E7369 		.ascii	"unsigned char\000"
 3478      676E6564 
 3478      20636861 
 3478      7200
 3479              	.LASF30:
 3480 0140 50726F63 		.ascii	"ProcessBeats\000"
 3480      65737342 
 3480      65617473 
 3480      00
 3481              	.LASF48:
 3482 014d 62656174 		.ascii	"beat1\000"
 3482      3100
 3483              	.LASF49:
 3484 0153 62656174 		.ascii	"beat2\000"
 3484      3200
 3485              	.LASF7:
 3486 0159 6C6F6E67 		.ascii	"long long unsigned int\000"
 3486      206C6F6E 
 3486      6720756E 
 3486      7369676E 
 3486      65642069 
 3487              	.LASF8:
 3488 0170 756E7369 		.ascii	"unsigned int\000"
 3488      676E6564 
 3488      20696E74 
 3488      00
 3489              	.LASF34:
 3490 017d 696E7075 		.ascii	"input\000"
 3490      7400
 3491              	.LASF3:
 3492 0183 73686F72 		.ascii	"short unsigned int\000"
 3492      7420756E 
 3492      7369676E 
 3492      65642069 
 3492      6E7400
 3493              	.LASF9:
 3494 0196 63686172 		.ascii	"char\000"
 3494      00
 3495              	.LASF4:
ARM GAS  C:\DOCUME~1\student\LOCALS~1\Temp\ccTcJUb5.s 			page 72


 3496 019b 6C6F6E67 		.ascii	"long int\000"
 3496      20696E74 
 3496      00
 3497              	.LASF29:
 3498 01a4 6D61696E 		.ascii	"main\000"
 3498      00
 3499              	.LASF32:
 3500 01a9 50726F63 		.ascii	"ProcessFFT\000"
 3500      65737346 
 3500      465400
 3501              	.LASF19:
 3502 01b4 5F426F6F 		.ascii	"_Bool\000"
 3502      6C00
 3503              	.LASF46:
 3504 01ba 676C6F62 		.ascii	"global_i\000"
 3504      616C5F69 
 3504      00
 3505              	.LASF28:
 3506 01c3 75706461 		.ascii	"updateCurrentTimeMills\000"
 3506      74654375 
 3506      7272656E 
 3506      7454696D 
 3506      654D696C 
 3507              	.LASF5:
 3508 01da 6C6F6E67 		.ascii	"long unsigned int\000"
 3508      20756E73 
 3508      69676E65 
 3508      6420696E 
 3508      7400
 3509              	.LASF21:
 3510 01ec 52657365 		.ascii	"ResetFFT\000"
 3510      74464654 
 3510      00
 3511              	.LASF12:
 3512 01f5 646F7562 		.ascii	"double\000"
 3512      6C6500
 3513              	.LASF15:
 3514 01fc 6C617374 		.ascii	"lastTimeMills\000"
 3514      54696D65 
 3514      4D696C6C 
 3514      7300
 3515              	.LASF51:
 3516 020a 2E5C6D61 		.ascii	".\\main.c\000"
 3516      696E2E63 
 3516      00
 3517              	.LASF20:
 3518 0213 42656174 		.ascii	"BeatState\000"
 3518      53746174 
 3518      6500
 3519              	.LASF35:
 3520 021d 496E6974 		.ascii	"InitBeatStates\000"
 3520      42656174 
 3520      53746174 
 3520      657300
 3521              	.LASF16:
 3522 022c 66726571 		.ascii	"frequency\000"
 3522      75656E63 
ARM GAS  C:\DOCUME~1\student\LOCALS~1\Temp\ccTcJUb5.s 			page 73


 3522      7900
 3523              	.LASF24:
 3524 0236 6F757470 		.ascii	"output\000"
 3524      757400
 3525              	.LASF40:
 3526 023d 64617461 		.ascii	"data_imm\000"
 3526      5F696D6D 
 3526      00
 3527              	.LASF50:
 3528 0246 474E5520 		.ascii	"GNU C 4.4.1\000"
 3528      4320342E 
 3528      342E3100 
 3529              	.LASF38:
 3530 0252 49544D5F 		.ascii	"ITM_RxBuffer\000"
 3530      52784275 
 3530      66666572 
 3530      00
 3531              	.LASF54:
 3532 025f 50726F63 		.ascii	"ProcessUARTRX\000"
 3532      65737355 
 3532      41525452 
 3532      5800
 3533              	.LASF45:
 3534 026d 7A65726F 		.ascii	"zero\000"
 3534      00
 3535              		.ident	"GCC: (Sourcery G++ Lite 2010q1-188) 4.4.1"
